(dp0
S'speech_samples/pronunciation_en_five.mp3:speech_samples/pronunciation_en_one.mp3'
p1
F0.48140309741278353
sS'speech_samples/pronunciation_en_seven.mp3:speech_samples/pronunciation_en_one.mp3'
p2
F0.5038447098847966
sS'speech_samples/pronunciation_en_one.mp3:speech_samples/pronunciation_en_zero2.mp3'
p3
F0.4685362398993596
sS'speech_samples/pronunciation_en_five.mp3:speech_samples/pronunciation_en_seven.mp3'
p4
F0.591685572384102
sS'speech_samples/pronunciation_en_five.mp3:speech_samples/pronunciation_en_zero2.mp3'
p5
F0.42945972181854514
sS'speech_samples/pronunciation_en_zero2.mp3:speech_samples/pronunciation_en_nine.mp3'
p6
F0.5796810259607622
sS'speech_samples/pronunciation_en_nine.mp3:speech_samples/pronunciation_en_five.mp3'
p7
F0.4691210676154256
sS'speech_samples/pronunciation_en_zero2.mp3:speech_samples/pronunciation_en_one.mp3'
p8
F0.5809396415988148
sS'speech_samples/pronunciation_en_one.mp3:speech_samples/pronunciation_en_five.mp3'
p9
F0.5096964921148233
sS'speech_samples/pronunciation_en_nine.mp3:speech_samples/pronunciation_en_one.mp3'
p10
F0.4645457092992478
sS'speech_samples/pronunciation_en_one.mp3:speech_samples/pronunciation_en_seven.mp3'
p11
F0.5358296229778183
sS'speech_samples/pronunciation_en_nine.mp3:speech_samples/pronunciation_en_seven.mp3'
p12
F0.4547951503833856
sS'speech_samples/pronunciation_en_nine.mp3:speech_samples/pronunciation_en_zero2.mp3'
p13
F0.41172841520393416
sS'speech_samples/pronunciation_en_zero2.mp3:speech_samples/pronunciation_en_seven.mp3'
p14
F0.58238942015183
sS'speech_samples/pronunciation_en_seven.mp3:speech_samples/pronunciation_en_zero2.mp3'
p15
F0.43017716707619136
sS'speech_samples/pronunciation_en_seven.mp3:speech_samples/pronunciation_en_nine.mp3'
p16
F0.5835416897916899
sS'speech_samples/pronunciation_en_zero2.mp3:speech_samples/pronunciation_en_five.mp3'
p17
F0.573382271349558
sS'speech_samples/pronunciation_en_seven.mp3:speech_samples/pronunciation_en_five.mp3'
p18
F0.48159302911141144
sS'speech_samples/pronunciation_en_one.mp3:speech_samples/pronunciation_en_nine.mp3'
p19
F0.5352797443384287
sS'speech_samples/pronunciation_en_five.mp3:speech_samples/pronunciation_en_nine.mp3'
p20
F0.4920936661666702
s.