(dp0
S'/home/ishwarya/Documents/math_modeling/AMR-Data-Embedding/audio_samples/Harvard_Sentences/OSR_us_000_0031_8k.wav:speech_samples/pronunciation_en_seven.mp3:speech_samples/pronunciation_en_nine.mp3'
p1
cnumpy.core.multiarray
scalar
p2
(cnumpy
dtype
p3
(S'f8'
p4
I0
I1
tp5
Rp6
(I3
S'<'
p7
NNNI-1
I-1
I0
tp8
bS'9\x8e\xe38\x8e\xe3\xd8?'
p9
tp10
Rp11
sS'/home/ishwarya/Documents/math_modeling/AMR-Data-Embedding/audio_samples/Harvard_Sentences/OSR_us_000_0014_8k.wav:speech_samples/pronunciation_en_nine.mp3:speech_samples/pronunciation_en_zero2.mp3'
p12
g2
(g6
S'\xab\xaa\xaa\xaa\xaa\xaa\xda?'
p13
tp14
Rp15
sS'/home/ishwarya/Documents/math_modeling/AMR-Data-Embedding/audio_samples/Harvard_Sentences/OSR_us_000_0039_8k.wav:speech_samples/pronunciation_en_five.mp3:speech_samples/pronunciation_en_seven.mp3'
p16
g2
(g6
S'ffffff\xe6?'
p17
tp18
Rp19
sS'/home/ishwarya/Documents/math_modeling/AMR-Data-Embedding/audio_samples/Harvard_Sentences/OSR_us_000_0015_8k.wav:speech_samples/pronunciation_en_seven.mp3:speech_samples/pronunciation_en_five.mp3'
p20
g2
(g6
S'\x00\x00\x00\x00\x00\x00\xe0?'
p21
tp22
Rp23
sS'/home/ishwarya/Documents/math_modeling/AMR-Data-Embedding/audio_samples/Harvard_Sentences/OSR_us_000_0060_8k.wav:speech_samples/pronunciation_en_seven.mp3:speech_samples/pronunciation_en_five.mp3'
p24
g2
(g6
S'\x9a\x99\x99\x99\x99\x99\xe1?'
p25
tp26
Rp27
sS'/home/ishwarya/Documents/math_modeling/AMR-Data-Embedding/audio_samples/Harvard_Sentences/OSR_us_000_0037_8k.wav:speech_samples/pronunciation_en_nine.mp3:speech_samples/pronunciation_en_zero2.mp3'
p28
g2
(g6
S"\xc8V\x04\r'u\xdf?"
p29
tp30
Rp31
sS'/home/ishwarya/Documents/math_modeling/AMR-Data-Embedding/audio_samples/Harvard_Sentences/OSR_us_000_0010_8k.wav:speech_samples/pronunciation_en_seven.mp3:speech_samples/pronunciation_en_zero2.mp3'
p32
g2
(g6
S'\x1aa\xb9\xa7\x11\x96\xdb?'
p33
tp34
Rp35
sS'/home/ishwarya/Documents/math_modeling/AMR-Data-Embedding/audio_samples/Harvard_Sentences/OSR_us_000_0014_8k.wav:speech_samples/pronunciation_en_seven.mp3:speech_samples/pronunciation_en_zero2.mp3'
p36
g2
(g6
S'\n\xc6[\xd9\xe7\x90\xda?'
p37
tp38
Rp39
sS'/home/ishwarya/Documents/math_modeling/AMR-Data-Embedding/audio_samples/Harvard_Sentences/OSR_us_000_0057_8k.wav:speech_samples/pronunciation_en_nine.mp3:speech_samples/pronunciation_en_zero2.mp3'
p40
g2
(g6
S'\xd8\x82-\xd8\x82-\xd8?'
p41
tp42
Rp43
sS'/home/ishwarya/Documents/math_modeling/AMR-Data-Embedding/audio_samples/Harvard_Sentences/OSR_us_000_0011_8k.wav:speech_samples/pronunciation_en_nine.mp3:speech_samples/pronunciation_en_five.mp3'
p44
g2
(g6
S'\xcd\xcc\xcc\xcc\xcc\xcc\xdc?'
p45
tp46
Rp47
sS'/home/ishwarya/Documents/math_modeling/AMR-Data-Embedding/audio_samples/Harvard_Sentences/OSR_us_000_0038_8k.wav:speech_samples/pronunciation_en_nine.mp3:speech_samples/pronunciation_en_zero2.mp3'
p48
g2
(g6
S"\x04\r'u_\x1e\xdb?"
p49
tp50
Rp51
sS'/home/ishwarya/Documents/math_modeling/AMR-Data-Embedding/audio_samples/Harvard_Sentences/OSR_us_000_0057_8k.wav:speech_samples/pronunciation_en_seven.mp3:speech_samples/pronunciation_en_one.mp3'
p52
g2
(g6
S'\x10\x04A\x10\x04A\xe0?'
p53
tp54
Rp55
sS'/home/ishwarya/Documents/math_modeling/AMR-Data-Embedding/audio_samples/Harvard_Sentences/OSR_us_000_0014_8k.wav:speech_samples/pronunciation_en_nine.mp3:speech_samples/pronunciation_en_one.mp3'
p56
g2
(g6
S'\xb6\xd6Zk\xad\xb5\xd6?'
p57
tp58
Rp59
sS'/home/ishwarya/Documents/math_modeling/AMR-Data-Embedding/audio_samples/Harvard_Sentences/OSR_us_000_0037_8k.wav:speech_samples/pronunciation_en_one.mp3:speech_samples/pronunciation_en_seven.mp3'
p60
g2
(g6
S'\xb1\x13;\xb1\x13;\xe1?'
p61
tp62
Rp63
sS'/home/ishwarya/Documents/math_modeling/AMR-Data-Embedding/audio_samples/Harvard_Sentences/OSR_us_000_0016_8k.wav:speech_samples/pronunciation_en_seven.mp3:speech_samples/pronunciation_en_zero2.mp3'
p64
g2
(g6
S'\xdf{\xef\xbd\xf7\xde\xdb?'
p65
tp66
Rp67
sS'/home/ishwarya/Documents/math_modeling/AMR-Data-Embedding/audio_samples/Harvard_Sentences/OSR_us_000_0012_8k.wav:speech_samples/pronunciation_en_one.mp3:speech_samples/pronunciation_en_seven.mp3'
p68
g2
(g6
S'\xd3\xd2\xd2\xd2\xd2\xd2\xe2?'
p69
tp70
Rp71
sS'/home/ishwarya/Documents/math_modeling/AMR-Data-Embedding/audio_samples/Harvard_Sentences/OSR_us_000_0018_8k.wav:speech_samples/pronunciation_en_seven.mp3:speech_samples/pronunciation_en_nine.mp3'
p72
g2
(g6
S'r\x1c\xc7q\x1c\xc7\xe1?'
p73
tp74
Rp75
sS'/home/ishwarya/Documents/math_modeling/AMR-Data-Embedding/audio_samples/Harvard_Sentences/OSR_us_000_0061_8k.wav:speech_samples/pronunciation_en_seven.mp3:speech_samples/pronunciation_en_one.mp3'
p76
g2
(g6
S']t\xd1E\x17]\xe4?'
p77
tp78
Rp79
sS'/home/ishwarya/Documents/math_modeling/AMR-Data-Embedding/audio_samples/Harvard_Sentences/OSR_us_000_0013_8k.wav:speech_samples/pronunciation_en_one.mp3:speech_samples/pronunciation_en_five.mp3'
p80
g2
(g6
S'\x00\x00\x00\x00\x00\x00\xe8?'
p81
tp82
Rp83
sS'/home/ishwarya/Documents/math_modeling/AMR-Data-Embedding/audio_samples/Harvard_Sentences/OSR_us_000_0061_8k.wav:speech_samples/pronunciation_en_one.mp3:speech_samples/pronunciation_en_nine.mp3'
p84
g2
(g6
S'UUUUUU\xd5?'
p85
tp86
Rp87
sS'/home/ishwarya/Documents/math_modeling/AMR-Data-Embedding/audio_samples/Harvard_Sentences/OSR_us_000_0035_8k.wav:speech_samples/pronunciation_en_five.mp3:speech_samples/pronunciation_en_seven.mp3'
p88
g2
(g6
S'\xb7m\xdb\xb6m\xdb\xe6?'
p89
tp90
Rp91
sS'/home/ishwarya/Documents/math_modeling/AMR-Data-Embedding/audio_samples/Harvard_Sentences/OSR_us_000_0032_8k.wav:speech_samples/pronunciation_en_one.mp3:speech_samples/pronunciation_en_seven.mp3'
p92
g2
(g6
S'\xbd\xe9Moz\xd3\xdb?'
p93
tp94
Rp95
sS'/home/ishwarya/Documents/math_modeling/AMR-Data-Embedding/audio_samples/Harvard_Sentences/OSR_us_000_0031_8k.wav:speech_samples/pronunciation_en_one.mp3:speech_samples/pronunciation_en_zero2.mp3'
p96
g2
(g6
S'\x9a\x99\x99\x99\x99\x99\xd9?'
p97
tp98
Rp99
sS'/home/ishwarya/Documents/math_modeling/AMR-Data-Embedding/audio_samples/Harvard_Sentences/OSR_us_000_0032_8k.wav:speech_samples/pronunciation_en_nine.mp3:speech_samples/pronunciation_en_seven.mp3'
p100
g2
(g6
S'\x14;\xb1\x13;\xb1\xd3?'
p101
tp102
Rp103
sS'/home/ishwarya/Documents/math_modeling/AMR-Data-Embedding/audio_samples/Harvard_Sentences/OSR_us_000_0040_8k.wav:speech_samples/pronunciation_en_one.mp3:speech_samples/pronunciation_en_nine.mp3'
p104
g2
(g6
S'\x9e\xd8\x89\x9d\xd8\x89\xcd?'
p105
tp106
Rp107
sS'/home/ishwarya/Documents/math_modeling/AMR-Data-Embedding/audio_samples/Harvard_Sentences/OSR_us_000_0032_8k.wav:speech_samples/pronunciation_en_zero2.mp3:speech_samples/pronunciation_en_one.mp3'
p108
g2
(g6
S'm%\xb5\x95\xd4V\xe2?'
p109
tp110
Rp111
sS'/home/ishwarya/Documents/math_modeling/AMR-Data-Embedding/audio_samples/Harvard_Sentences/OSR_us_000_0059_8k.wav:speech_samples/pronunciation_en_seven.mp3:speech_samples/pronunciation_en_one.mp3'
p112
g2
(g6
S'\xa4p=\n\xd7\xa3\xe0?'
p113
tp114
Rp115
sS'/home/ishwarya/Documents/math_modeling/AMR-Data-Embedding/audio_samples/Harvard_Sentences/OSR_us_000_0019_8k.wav:speech_samples/pronunciation_en_five.mp3:speech_samples/pronunciation_en_seven.mp3'
p116
g2
(g6
S'\x92$I\x92$I\xe2?'
p117
tp118
Rp119
sS'/home/ishwarya/Documents/math_modeling/AMR-Data-Embedding/audio_samples/Harvard_Sentences/OSR_us_000_0039_8k.wav:speech_samples/pronunciation_en_zero2.mp3:speech_samples/pronunciation_en_five.mp3'
p120
g2
(g6
S'\xca\x15\xc4\xe4\nb\xe2?'
p121
tp122
Rp123
sS'/home/ishwarya/Documents/math_modeling/AMR-Data-Embedding/audio_samples/Harvard_Sentences/OSR_us_000_0017_8k.wav:speech_samples/pronunciation_en_zero2.mp3:speech_samples/pronunciation_en_nine.mp3'
p124
g2
(g6
S'\xdb\xb6m\xdb\xb6m\xe3?'
p125
tp126
Rp127
sS'/home/ishwarya/Documents/math_modeling/AMR-Data-Embedding/audio_samples/Harvard_Sentences/OSR_us_000_0031_8k.wav:speech_samples/pronunciation_en_five.mp3:speech_samples/pronunciation_en_zero2.mp3'
p128
g2
(g6
S'\x97\x96\x96\x96\x96\x96\xd6?'
p129
tp130
Rp131
sS'/home/ishwarya/Documents/math_modeling/AMR-Data-Embedding/audio_samples/Harvard_Sentences/OSR_us_000_0057_8k.wav:speech_samples/pronunciation_en_seven.mp3:speech_samples/pronunciation_en_nine.mp3'
p132
g2
(g6
S'\xab\xaa\xaa\xaa\xaa\xaa\xea?'
p133
tp134
Rp135
sS'/home/ishwarya/Documents/math_modeling/AMR-Data-Embedding/audio_samples/Harvard_Sentences/OSR_us_000_0017_8k.wav:speech_samples/pronunciation_en_zero2.mp3:speech_samples/pronunciation_en_one.mp3'
p136
g2
(g6
S'\xbf\xa0/\xe8\x0b\xfa\xe2?'
p137
tp138
Rp139
sS'/home/ishwarya/Documents/math_modeling/AMR-Data-Embedding/audio_samples/Harvard_Sentences/OSR_us_000_0059_8k.wav:speech_samples/pronunciation_en_zero2.mp3:speech_samples/pronunciation_en_five.mp3'
p140
g2
(g6
S'\x834H\x834H\xe3?'
p141
tp142
Rp143
sS'/home/ishwarya/Documents/math_modeling/AMR-Data-Embedding/audio_samples/Harvard_Sentences/OSR_us_000_0014_8k.wav:speech_samples/pronunciation_en_seven.mp3:speech_samples/pronunciation_en_one.mp3'
p144
g2
(g6
S'\xcd\xcc\xcc\xcc\xcc\xcc\xdc?'
p145
tp146
Rp147
sS'/home/ishwarya/Documents/math_modeling/AMR-Data-Embedding/audio_samples/Harvard_Sentences/OSR_us_000_0036_8k.wav:speech_samples/pronunciation_en_seven.mp3:speech_samples/pronunciation_en_five.mp3'
p148
g2
(g6
S'\x14;\xb1\x13;\xb1\xe3?'
p149
tp150
Rp151
sS'/home/ishwarya/Documents/math_modeling/AMR-Data-Embedding/audio_samples/Harvard_Sentences/OSR_us_000_0010_8k.wav:speech_samples/pronunciation_en_zero2.mp3:speech_samples/pronunciation_en_one.mp3'
p152
g2
(g6
S'm\x98\xe6.\xf8\xab\xe8?'
p153
tp154
Rp155
sS'/home/ishwarya/Documents/math_modeling/AMR-Data-Embedding/audio_samples/Harvard_Sentences/OSR_us_000_0035_8k.wav:speech_samples/pronunciation_en_zero2.mp3:speech_samples/pronunciation_en_nine.mp3'
p156
g2
(g6
S'\t\xed%\xb4\x97\xd0\xde?'
p157
tp158
Rp159
sS'/home/ishwarya/Documents/math_modeling/AMR-Data-Embedding/audio_samples/Harvard_Sentences/OSR_us_000_0034_8k.wav:speech_samples/pronunciation_en_one.mp3:speech_samples/pronunciation_en_five.mp3'
p160
g2
(g6
S'\x00\x00\x00\x00\x00\x00\x00\x00'
p161
tp162
Rp163
sS'/home/ishwarya/Documents/math_modeling/AMR-Data-Embedding/audio_samples/Harvard_Sentences/OSR_us_000_0013_8k.wav:speech_samples/pronunciation_en_nine.mp3:speech_samples/pronunciation_en_five.mp3'
p164
g2
(g6
S'\x00\x00\x00\x00\x00\x00\xe8?'
p165
tp166
Rp167
sS'/home/ishwarya/Documents/math_modeling/AMR-Data-Embedding/audio_samples/Harvard_Sentences/OSR_us_000_0059_8k.wav:speech_samples/pronunciation_en_five.mp3:speech_samples/pronunciation_en_seven.mp3'
p168
g2
(g6
S'\xf1\xf0\xf0\xf0\xf0\xf0\xe0?'
p169
tp170
Rp171
sS'/home/ishwarya/Documents/math_modeling/AMR-Data-Embedding/audio_samples/Harvard_Sentences/OSR_us_000_0032_8k.wav:speech_samples/pronunciation_en_one.mp3:speech_samples/pronunciation_en_nine.mp3'
p172
g2
(g6
S'P\x07uP\x07u\xe0?'
p173
tp174
Rp175
sS'/home/ishwarya/Documents/math_modeling/AMR-Data-Embedding/audio_samples/Harvard_Sentences/OSR_us_000_0011_8k.wav:speech_samples/pronunciation_en_nine.mp3:speech_samples/pronunciation_en_one.mp3'
p176
g2
(g6
S'!\xce\xcaO\x88\xb3\xe2?'
p177
tp178
Rp179
sS'/home/ishwarya/Documents/math_modeling/AMR-Data-Embedding/audio_samples/Harvard_Sentences/OSR_us_000_0018_8k.wav:speech_samples/pronunciation_en_nine.mp3:speech_samples/pronunciation_en_one.mp3'
p180
g2
(g6
S'\xf1\xf0\xf0\xf0\xf0\xf0\xe0?'
p181
tp182
Rp183
sS'/home/ishwarya/Documents/math_modeling/AMR-Data-Embedding/audio_samples/Harvard_Sentences/OSR_us_000_0015_8k.wav:speech_samples/pronunciation_en_nine.mp3:speech_samples/pronunciation_en_seven.mp3'
p184
g2
(g6
S'9\x8e\xe38\x8e\xe3\xe8?'
p185
tp186
Rp187
sS'/home/ishwarya/Documents/math_modeling/AMR-Data-Embedding/audio_samples/Harvard_Sentences/OSR_us_000_0060_8k.wav:speech_samples/pronunciation_en_zero2.mp3:speech_samples/pronunciation_en_seven.mp3'
p188
g2
(g6
S'\x97\x96\x96\x96\x96\x96\xe6?'
p189
tp190
Rp191
sS'/home/ishwarya/Documents/math_modeling/AMR-Data-Embedding/audio_samples/Harvard_Sentences/OSR_us_000_0039_8k.wav:speech_samples/pronunciation_en_seven.mp3:speech_samples/pronunciation_en_one.mp3'
p192
g2
(g6
S'\x00\x00\x00\x00\x00\x00\xe0?'
p193
tp194
Rp195
sS'/home/ishwarya/Documents/math_modeling/AMR-Data-Embedding/audio_samples/Harvard_Sentences/OSR_us_000_0060_8k.wav:speech_samples/pronunciation_en_one.mp3:speech_samples/pronunciation_en_seven.mp3'
p196
g2
(g6
S'\x00\x00\x00\x00\x00\x00\xdc?'
p197
tp198
Rp199
sS'/home/ishwarya/Documents/math_modeling/AMR-Data-Embedding/audio_samples/Harvard_Sentences/OSR_us_000_0012_8k.wav:speech_samples/pronunciation_en_five.mp3:speech_samples/pronunciation_en_zero2.mp3'
p200
g2
(g6
S'\x00\x00\x00\x00\x00\x00\xe0?'
p201
tp202
Rp203
sS'/home/ishwarya/Documents/math_modeling/AMR-Data-Embedding/audio_samples/Harvard_Sentences/OSR_us_000_0061_8k.wav:speech_samples/pronunciation_en_five.mp3:speech_samples/pronunciation_en_one.mp3'
p204
g2
(g6
S'r\x1c\xc7q\x1c\xc7\xe1?'
p205
tp206
Rp207
sS'/home/ishwarya/Documents/math_modeling/AMR-Data-Embedding/audio_samples/Harvard_Sentences/OSR_us_000_0010_8k.wav:speech_samples/pronunciation_en_five.mp3:speech_samples/pronunciation_en_one.mp3'
p208
g2
(g6
S';\xb1\x13;\xb1\x13\xdb?'
p209
tp210
Rp211
sS'/home/ishwarya/Documents/math_modeling/AMR-Data-Embedding/audio_samples/Harvard_Sentences/OSR_us_000_0010_8k.wav:speech_samples/pronunciation_en_five.mp3:speech_samples/pronunciation_en_seven.mp3'
p212
g2
(g6
S'\xab\xaa\xaa\xaa\xaa\xaa\xea?'
p213
tp214
Rp215
sS'/home/ishwarya/Documents/math_modeling/AMR-Data-Embedding/audio_samples/Harvard_Sentences/OSR_us_000_0038_8k.wav:speech_samples/pronunciation_en_five.mp3:speech_samples/pronunciation_en_nine.mp3'
p216
g2
(g6
S'\x00\x00\x00\x00\x00\x00\xd8?'
p217
tp218
Rp219
sS'/home/ishwarya/Documents/math_modeling/AMR-Data-Embedding/audio_samples/Harvard_Sentences/OSR_us_000_0016_8k.wav:speech_samples/pronunciation_en_nine.mp3:speech_samples/pronunciation_en_five.mp3'
p220
g2
(g6
S'\n\xd7\xa3p=\n\xd7?'
p221
tp222
Rp223
sS'/home/ishwarya/Documents/math_modeling/AMR-Data-Embedding/audio_samples/Harvard_Sentences/OSR_us_000_0057_8k.wav:speech_samples/pronunciation_en_five.mp3:speech_samples/pronunciation_en_zero2.mp3'
p224
g2
(g6
S'\x97o\xf9\x96o\xf9\xd6?'
p225
tp226
Rp227
sS'/home/ishwarya/Documents/math_modeling/AMR-Data-Embedding/audio_samples/Harvard_Sentences/OSR_us_000_0036_8k.wav:speech_samples/pronunciation_en_one.mp3:speech_samples/pronunciation_en_zero2.mp3'
p228
g2
(g6
S'ZZZZZZ\xda?'
p229
tp230
Rp231
sS'/home/ishwarya/Documents/math_modeling/AMR-Data-Embedding/audio_samples/Harvard_Sentences/OSR_us_000_0015_8k.wav:speech_samples/pronunciation_en_zero2.mp3:speech_samples/pronunciation_en_nine.mp3'
p232
g2
(g6
S'=\n\xd7\xa3p=\xe2?'
p233
tp234
Rp235
sS'/home/ishwarya/Documents/math_modeling/AMR-Data-Embedding/audio_samples/Harvard_Sentences/OSR_us_000_0016_8k.wav:speech_samples/pronunciation_en_five.mp3:speech_samples/pronunciation_en_zero2.mp3'
p236
g2
(g6
S'\xb0\x8e6\xefS\\\xe2?'
p237
tp238
Rp239
sS'/home/ishwarya/Documents/math_modeling/AMR-Data-Embedding/audio_samples/Harvard_Sentences/OSR_us_000_0018_8k.wav:speech_samples/pronunciation_en_nine.mp3:speech_samples/pronunciation_en_five.mp3'
p240
g2
(g6
S'\xc2rO#,\xf7\xe4?'
p241
tp242
Rp243
sS'/home/ishwarya/Documents/math_modeling/AMR-Data-Embedding/audio_samples/Harvard_Sentences/OSR_us_000_0017_8k.wav:speech_samples/pronunciation_en_one.mp3:speech_samples/pronunciation_en_zero2.mp3'
p244
g2
(g6
S'X|\xc5W|\xc5\xd7?'
p245
tp246
Rp247
sS'/home/ishwarya/Documents/math_modeling/AMR-Data-Embedding/audio_samples/Harvard_Sentences/OSR_us_000_0035_8k.wav:speech_samples/pronunciation_en_zero2.mp3:speech_samples/pronunciation_en_seven.mp3'
p248
g2
(g6
S'\xe9\xa2\x8b.\xba\xe8\xe2?'
p249
tp250
Rp251
sS'/home/ishwarya/Documents/math_modeling/AMR-Data-Embedding/audio_samples/Harvard_Sentences/OSR_us_000_0030_8k.wav:speech_samples/pronunciation_en_seven.mp3:speech_samples/pronunciation_en_zero2.mp3'
p252
g2
(g6
S'\x03\x9d6\xd0i\x03\xdd?'
p253
tp254
Rp255
sS'/home/ishwarya/Documents/math_modeling/AMR-Data-Embedding/audio_samples/Harvard_Sentences/OSR_us_000_0010_8k.wav:speech_samples/pronunciation_en_seven.mp3:speech_samples/pronunciation_en_five.mp3'
p256
g2
(g6
S'UUUUUU\xd5?'
p257
tp258
Rp259
sS'/home/ishwarya/Documents/math_modeling/AMR-Data-Embedding/audio_samples/Harvard_Sentences/OSR_us_000_0057_8k.wav:speech_samples/pronunciation_en_one.mp3:speech_samples/pronunciation_en_seven.mp3'
p260
g2
(g6
S'\xcd\xcc\xcc\xcc\xcc\xcc\xec?'
p261
tp262
Rp263
sS'/home/ishwarya/Documents/math_modeling/AMR-Data-Embedding/audio_samples/Harvard_Sentences/OSR_us_000_0019_8k.wav:speech_samples/pronunciation_en_zero2.mp3:speech_samples/pronunciation_en_one.mp3'
p264
g2
(g6
S'ogH\xcc\xdb\x19\xe2?'
p265
tp266
Rp267
sS'/home/ishwarya/Documents/math_modeling/AMR-Data-Embedding/audio_samples/Harvard_Sentences/OSR_us_000_0011_8k.wav:speech_samples/pronunciation_en_seven.mp3:speech_samples/pronunciation_en_zero2.mp3'
p268
g2
(g6
S'\x1aa\xb9\xa7\x11\x96\xdb?'
p269
tp270
Rp271
sS'/home/ishwarya/Documents/math_modeling/AMR-Data-Embedding/audio_samples/Harvard_Sentences/OSR_us_000_0035_8k.wav:speech_samples/pronunciation_en_nine.mp3:speech_samples/pronunciation_en_one.mp3'
p272
g2
(g6
S'\xb7m\xdb\xb6m\xdb\xe6?'
p273
tp274
Rp275
sS'/home/ishwarya/Documents/math_modeling/AMR-Data-Embedding/audio_samples/Harvard_Sentences/OSR_us_000_0011_8k.wav:speech_samples/pronunciation_en_zero2.mp3:speech_samples/pronunciation_en_five.mp3'
p276
g2
(g6
S'\xd7\xa3p=\n\xd7\xe3?'
p277
tp278
Rp279
sS'/home/ishwarya/Documents/math_modeling/AMR-Data-Embedding/audio_samples/Harvard_Sentences/OSR_us_000_0039_8k.wav:speech_samples/pronunciation_en_seven.mp3:speech_samples/pronunciation_en_five.mp3'
p280
g2
(g6
S'9\x8e\xe38\x8e\xe3\xe8?'
p281
tp282
Rp283
sS'/home/ishwarya/Documents/math_modeling/AMR-Data-Embedding/audio_samples/Harvard_Sentences/OSR_us_000_0060_8k.wav:speech_samples/pronunciation_en_five.mp3:speech_samples/pronunciation_en_seven.mp3'
p284
g2
(g6
S'\xe9\xa2\x8b.\xba\xe8\xe2?'
p285
tp286
Rp287
sS'/home/ishwarya/Documents/math_modeling/AMR-Data-Embedding/audio_samples/Harvard_Sentences/OSR_us_000_0031_8k.wav:speech_samples/pronunciation_en_zero2.mp3:speech_samples/pronunciation_en_nine.mp3'
p288
g2
(g6
S'\x0bbr\x051\xb9\xe2?'
p289
tp290
Rp291
sS'/home/ishwarya/Documents/math_modeling/AMR-Data-Embedding/audio_samples/Harvard_Sentences/OSR_us_000_0036_8k.wav:speech_samples/pronunciation_en_seven.mp3:speech_samples/pronunciation_en_nine.mp3'
p292
g2
(g6
S'\xd9\x89\x9d\xd8\x89\x9d\xd8?'
p293
tp294
Rp295
sS'/home/ishwarya/Documents/math_modeling/AMR-Data-Embedding/audio_samples/Harvard_Sentences/OSR_us_000_0039_8k.wav:speech_samples/pronunciation_en_seven.mp3:speech_samples/pronunciation_en_zero2.mp3'
p296
g2
(g6
S'\x00\x00\x00\x00\x00\x00\xd6?'
p297
tp298
Rp299
sS'/home/ishwarya/Documents/math_modeling/AMR-Data-Embedding/audio_samples/Harvard_Sentences/OSR_us_000_0015_8k.wav:speech_samples/pronunciation_en_five.mp3:speech_samples/pronunciation_en_nine.mp3'
p300
g2
(g6
S'""""""\xe2?'
p301
tp302
Rp303
sS'/home/ishwarya/Documents/math_modeling/AMR-Data-Embedding/audio_samples/Harvard_Sentences/OSR_us_000_0013_8k.wav:speech_samples/pronunciation_en_zero2.mp3:speech_samples/pronunciation_en_nine.mp3'
p304
g2
(g6
S'!\xce\xcaO\x88\xb3\xe2?'
p305
tp306
Rp307
sS'/home/ishwarya/Documents/math_modeling/AMR-Data-Embedding/audio_samples/Harvard_Sentences/OSR_us_000_0031_8k.wav:speech_samples/pronunciation_en_nine.mp3:speech_samples/pronunciation_en_one.mp3'
p308
g2
(g6
S'\xe7\xce\x9d;w\xee\xdc?'
p309
tp310
Rp311
sS'/home/ishwarya/Documents/math_modeling/AMR-Data-Embedding/audio_samples/Harvard_Sentences/OSR_us_000_0061_8k.wav:speech_samples/pronunciation_en_seven.mp3:speech_samples/pronunciation_en_nine.mp3'
p312
g2
(g6
S't\xd1E\x17]t\xe1?'
p313
tp314
Rp315
sS'/home/ishwarya/Documents/math_modeling/AMR-Data-Embedding/audio_samples/Harvard_Sentences/OSR_us_000_0035_8k.wav:speech_samples/pronunciation_en_nine.mp3:speech_samples/pronunciation_en_five.mp3'
p316
g2
(g6
S'\x00\x00\x00\x00\x00\x00\x00\x00'
p317
tp318
Rp319
sS'/home/ishwarya/Documents/math_modeling/AMR-Data-Embedding/audio_samples/Harvard_Sentences/OSR_us_000_0012_8k.wav:speech_samples/pronunciation_en_nine.mp3:speech_samples/pronunciation_en_seven.mp3'
p320
g2
(g6
S']t\xd1E\x17]\xe4?'
p321
tp322
Rp323
sS'/home/ishwarya/Documents/math_modeling/AMR-Data-Embedding/audio_samples/Harvard_Sentences/OSR_us_000_0032_8k.wav:speech_samples/pronunciation_en_seven.mp3:speech_samples/pronunciation_en_zero2.mp3'
p324
g2
(g6
S'\xdb\xb6m\xdb\xb6m\xdb?'
p325
tp326
Rp327
sS'/home/ishwarya/Documents/math_modeling/AMR-Data-Embedding/audio_samples/Harvard_Sentences/OSR_us_000_0032_8k.wav:speech_samples/pronunciation_en_nine.mp3:speech_samples/pronunciation_en_one.mp3'
p328
g2
(g6
S'\x00\x00\x00\x00\x00\x00\xd8?'
p329
tp330
Rp331
sS'/home/ishwarya/Documents/math_modeling/AMR-Data-Embedding/audio_samples/Harvard_Sentences/OSR_us_000_0034_8k.wav:speech_samples/pronunciation_en_one.mp3:speech_samples/pronunciation_en_nine.mp3'
p332
g2
(g6
S'\x00\x00\x00\x00\x00\x00\xd8?'
p333
tp334
Rp335
sS'/home/ishwarya/Documents/math_modeling/AMR-Data-Embedding/audio_samples/Harvard_Sentences/OSR_us_000_0061_8k.wav:speech_samples/pronunciation_en_nine.mp3:speech_samples/pronunciation_en_one.mp3'
p336
g2
(g6
S'\xdb\xb6m\xdb\xb6m\xdb?'
p337
tp338
Rp339
sS'/home/ishwarya/Documents/math_modeling/AMR-Data-Embedding/audio_samples/Harvard_Sentences/OSR_us_000_0038_8k.wav:speech_samples/pronunciation_en_five.mp3:speech_samples/pronunciation_en_zero2.mp3'
p340
g2
(g6
S'\t\xed%\xb4\x97\xd0\xde?'
p341
tp342
Rp343
sS'/home/ishwarya/Documents/math_modeling/AMR-Data-Embedding/audio_samples/Harvard_Sentences/OSR_us_000_0010_8k.wav:speech_samples/pronunciation_en_seven.mp3:speech_samples/pronunciation_en_nine.mp3'
p344
g2
(g6
S'\x00\x00\x00\x00\x00\x00\xe0?'
p345
tp346
Rp347
sS'/home/ishwarya/Documents/math_modeling/AMR-Data-Embedding/audio_samples/Harvard_Sentences/OSR_us_000_0010_8k.wav:speech_samples/pronunciation_en_one.mp3:speech_samples/pronunciation_en_seven.mp3'
p348
g2
(g6
S'l(\xaf\xa1\xbc\x86\xe2?'
p349
tp350
Rp351
sS'/home/ishwarya/Documents/math_modeling/AMR-Data-Embedding/audio_samples/Harvard_Sentences/OSR_us_000_0015_8k.wav:speech_samples/pronunciation_en_zero2.mp3:speech_samples/pronunciation_en_five.mp3'
p352
g2
(g6
S'oz\xd3\x9b\xde\xf4\xe6?'
p353
tp354
Rp355
sS'/home/ishwarya/Documents/math_modeling/AMR-Data-Embedding/audio_samples/Harvard_Sentences/OSR_us_000_0034_8k.wav:speech_samples/pronunciation_en_five.mp3:speech_samples/pronunciation_en_seven.mp3'
p356
g2
(g6
S'333333\xd3?'
p357
tp358
Rp359
sS'/home/ishwarya/Documents/math_modeling/AMR-Data-Embedding/audio_samples/Harvard_Sentences/OSR_us_000_0059_8k.wav:speech_samples/pronunciation_en_seven.mp3:speech_samples/pronunciation_en_zero2.mp3'
p360
g2
(g6
S'\xe4\xb2b\xa0\x847\xda?'
p361
tp362
Rp363
sS'/home/ishwarya/Documents/math_modeling/AMR-Data-Embedding/audio_samples/Harvard_Sentences/OSR_us_000_0019_8k.wav:speech_samples/pronunciation_en_nine.mp3:speech_samples/pronunciation_en_zero2.mp3'
p364
g2
(g6
S')\\\x8f\xc2\xf5(\xdc?'
p365
tp366
Rp367
sS'/home/ishwarya/Documents/math_modeling/AMR-Data-Embedding/audio_samples/Harvard_Sentences/OSR_us_000_0040_8k.wav:speech_samples/pronunciation_en_seven.mp3:speech_samples/pronunciation_en_zero2.mp3'
p368
g2
(g6
S'\x1e\x1e\x1e\x1e\x1e\x1e\xde?'
p369
tp370
Rp371
sS'/home/ishwarya/Documents/math_modeling/AMR-Data-Embedding/audio_samples/Harvard_Sentences/OSR_us_000_0017_8k.wav:speech_samples/pronunciation_en_one.mp3:speech_samples/pronunciation_en_five.mp3'
p372
g2
(g6
S'UUUUUU\xe3?'
p373
tp374
Rp375
sS'/home/ishwarya/Documents/math_modeling/AMR-Data-Embedding/audio_samples/Harvard_Sentences/OSR_us_000_0031_8k.wav:speech_samples/pronunciation_en_nine.mp3:speech_samples/pronunciation_en_zero2.mp3'
p376
g2
(g6
S'\x04\x95\xb3[\xf8\xd5\xd8?'
p377
tp378
Rp379
sS'/home/ishwarya/Documents/math_modeling/AMR-Data-Embedding/audio_samples/Harvard_Sentences/OSR_us_000_0030_8k.wav:speech_samples/pronunciation_en_zero2.mp3:speech_samples/pronunciation_en_nine.mp3'
p380
g2
(g6
S'\xd3\xb0\xdd,O"\xe3?'
p381
tp382
Rp383
sS'/home/ishwarya/Documents/math_modeling/AMR-Data-Embedding/audio_samples/Harvard_Sentences/OSR_us_000_0016_8k.wav:speech_samples/pronunciation_en_one.mp3:speech_samples/pronunciation_en_five.mp3'
p384
g2
(g6
S'<<<<<<\xdc?'
p385
tp386
Rp387
sS'/home/ishwarya/Documents/math_modeling/AMR-Data-Embedding/audio_samples/Harvard_Sentences/OSR_us_000_0036_8k.wav:speech_samples/pronunciation_en_zero2.mp3:speech_samples/pronunciation_en_one.mp3'
p388
g2
(g6
S'\x83-\xd8\x82-\xd8\xe2?'
p389
tp390
Rp391
sS'/home/ishwarya/Documents/math_modeling/AMR-Data-Embedding/audio_samples/Harvard_Sentences/OSR_us_000_0059_8k.wav:speech_samples/pronunciation_en_seven.mp3:speech_samples/pronunciation_en_nine.mp3'
p392
g2
(g6
S'\xab\xaa\xaa\xaa\xaa\xaa\xda?'
p393
tp394
Rp395
sS'/home/ishwarya/Documents/math_modeling/AMR-Data-Embedding/audio_samples/Harvard_Sentences/OSR_us_000_0015_8k.wav:speech_samples/pronunciation_en_seven.mp3:speech_samples/pronunciation_en_zero2.mp3'
p396
g2
(g6
S'\xb6l\xd9\xb2e\xcb\xd6?'
p397
tp398
Rp399
sS'/home/ishwarya/Documents/math_modeling/AMR-Data-Embedding/audio_samples/Harvard_Sentences/OSR_us_000_0040_8k.wav:speech_samples/pronunciation_en_zero2.mp3:speech_samples/pronunciation_en_five.mp3'
p400
g2
(g6
S'\xf1\xf0\xf0\xf0\xf0\xf0\xe0?'
p401
tp402
Rp403
sS'/home/ishwarya/Documents/math_modeling/AMR-Data-Embedding/audio_samples/Harvard_Sentences/OSR_us_000_0019_8k.wav:speech_samples/pronunciation_en_seven.mp3:speech_samples/pronunciation_en_five.mp3'
p404
g2
(g6
S'\x14;\xb1\x13;\xb1\xd3?'
p405
tp406
Rp407
sS'/home/ishwarya/Documents/math_modeling/AMR-Data-Embedding/audio_samples/Harvard_Sentences/OSR_us_000_0057_8k.wav:speech_samples/pronunciation_en_zero2.mp3:speech_samples/pronunciation_en_nine.mp3'
p408
g2
(g6
S'\xa3\x8b.\xba\xe8\xa2\xe3?'
p409
tp410
Rp411
sS'/home/ishwarya/Documents/math_modeling/AMR-Data-Embedding/audio_samples/Harvard_Sentences/OSR_us_000_0018_8k.wav:speech_samples/pronunciation_en_five.mp3:speech_samples/pronunciation_en_one.mp3'
p412
g2
(g6
S'\xd6\x945eMY\xe3?'
p413
tp414
Rp415
sS'/home/ishwarya/Documents/math_modeling/AMR-Data-Embedding/audio_samples/Harvard_Sentences/OSR_us_000_0032_8k.wav:speech_samples/pronunciation_en_nine.mp3:speech_samples/pronunciation_en_zero2.mp3'
p416
g2
(g6
S'\x9c0\xbf\xab\xc5M\xd8?'
p417
tp418
Rp419
sS'/home/ishwarya/Documents/math_modeling/AMR-Data-Embedding/audio_samples/Harvard_Sentences/OSR_us_000_0019_8k.wav:speech_samples/pronunciation_en_seven.mp3:speech_samples/pronunciation_en_nine.mp3'
p420
g2
(g6
S'\x00\x00\x00\x00\x00\x00\xe0?'
p421
tp422
Rp423
sS'/home/ishwarya/Documents/math_modeling/AMR-Data-Embedding/audio_samples/Harvard_Sentences/OSR_us_000_0031_8k.wav:speech_samples/pronunciation_en_zero2.mp3:speech_samples/pronunciation_en_one.mp3'
p424
g2
(g6
S'\xed%\xb4\x97\xd0^\xe2?'
p425
tp426
Rp427
sS'/home/ishwarya/Documents/math_modeling/AMR-Data-Embedding/audio_samples/Harvard_Sentences/OSR_us_000_0035_8k.wav:speech_samples/pronunciation_en_five.mp3:speech_samples/pronunciation_en_nine.mp3'
p428
g2
(g6
S'\x00\x00\x00\x00\x00\x00\x00\x00'
p429
tp430
Rp431
sS'/home/ishwarya/Documents/math_modeling/AMR-Data-Embedding/audio_samples/Harvard_Sentences/OSR_us_000_0011_8k.wav:speech_samples/pronunciation_en_nine.mp3:speech_samples/pronunciation_en_seven.mp3'
p432
g2
(g6
S'\xcd\xcc\xcc\xcc\xcc\xcc\xe4?'
p433
tp434
Rp435
sS'/home/ishwarya/Documents/math_modeling/AMR-Data-Embedding/audio_samples/Harvard_Sentences/OSR_us_000_0013_8k.wav:speech_samples/pronunciation_en_zero2.mp3:speech_samples/pronunciation_en_five.mp3'
p436
g2
(g6
S'\x92$I\x92$I\xe2?'
p437
tp438
Rp439
sS'/home/ishwarya/Documents/math_modeling/AMR-Data-Embedding/audio_samples/Harvard_Sentences/OSR_us_000_0014_8k.wav:speech_samples/pronunciation_en_zero2.mp3:speech_samples/pronunciation_en_nine.mp3'
p440
g2
(g6
S'\x83)\xf2Y7\x98\xe2?'
p441
tp442
Rp443
sS'/home/ishwarya/Documents/math_modeling/AMR-Data-Embedding/audio_samples/Harvard_Sentences/OSR_us_000_0010_8k.wav:speech_samples/pronunciation_en_seven.mp3:speech_samples/pronunciation_en_one.mp3'
p444
g2
(g6
S')\\\x8f\xc2\xf5(\xdc?'
p445
tp446
Rp447
sS'/home/ishwarya/Documents/math_modeling/AMR-Data-Embedding/audio_samples/Harvard_Sentences/OSR_us_000_0015_8k.wav:speech_samples/pronunciation_en_one.mp3:speech_samples/pronunciation_en_seven.mp3'
p448
g2
(g6
S't\xd1E\x17]t\xe1?'
p449
tp450
Rp451
sS'/home/ishwarya/Documents/math_modeling/AMR-Data-Embedding/audio_samples/Harvard_Sentences/OSR_us_000_0032_8k.wav:speech_samples/pronunciation_en_five.mp3:speech_samples/pronunciation_en_one.mp3'
p452
g2
(g6
S'\x00\x00\x00\x00\x00\x00\xe0?'
p453
tp454
Rp455
sS'/home/ishwarya/Documents/math_modeling/AMR-Data-Embedding/audio_samples/Harvard_Sentences/OSR_us_000_0016_8k.wav:speech_samples/pronunciation_en_one.mp3:speech_samples/pronunciation_en_nine.mp3'
p456
g2
(g6
S"\r'u_\x1e[\xe1?"
p457
tp458
Rp459
sS'/home/ishwarya/Documents/math_modeling/AMR-Data-Embedding/audio_samples/Harvard_Sentences/OSR_us_000_0039_8k.wav:speech_samples/pronunciation_en_one.mp3:speech_samples/pronunciation_en_zero2.mp3'
p460
g2
(g6
S'I\x92$I\x92$\xd9?'
p461
tp462
Rp463
sS'/home/ishwarya/Documents/math_modeling/AMR-Data-Embedding/audio_samples/Harvard_Sentences/OSR_us_000_0012_8k.wav:speech_samples/pronunciation_en_zero2.mp3:speech_samples/pronunciation_en_seven.mp3'
p464
g2
(g6
S'UUUUUU\xd5?'
p465
tp466
Rp467
sS'/home/ishwarya/Documents/math_modeling/AMR-Data-Embedding/audio_samples/Harvard_Sentences/OSR_us_000_0032_8k.wav:speech_samples/pronunciation_en_seven.mp3:speech_samples/pronunciation_en_one.mp3'
p468
g2
(g6
S'O\x1b\xe8\xb4\x81N\xdb?'
p469
tp470
Rp471
sS'/home/ishwarya/Documents/math_modeling/AMR-Data-Embedding/audio_samples/Harvard_Sentences/OSR_us_000_0013_8k.wav:speech_samples/pronunciation_en_one.mp3:speech_samples/pronunciation_en_nine.mp3'
p472
g2
(g6
S'\x14;\xb1\x13;\xb1\xe3?'
p473
tp474
Rp475
sS'/home/ishwarya/Documents/math_modeling/AMR-Data-Embedding/audio_samples/Harvard_Sentences/OSR_us_000_0011_8k.wav:speech_samples/pronunciation_en_zero2.mp3:speech_samples/pronunciation_en_one.mp3'
p476
g2
(g6
S'\xa4\xe4YF\xf4\x01\xe5?'
p477
tp478
Rp479
sS'/home/ishwarya/Documents/math_modeling/AMR-Data-Embedding/audio_samples/Harvard_Sentences/OSR_us_000_0031_8k.wav:speech_samples/pronunciation_en_one.mp3:speech_samples/pronunciation_en_nine.mp3'
p480
g2
(g6
S'\x00\x00\x00\x00\x00\x00\xe4?'
p481
tp482
Rp483
sS'/home/ishwarya/Documents/math_modeling/AMR-Data-Embedding/audio_samples/Harvard_Sentences/OSR_us_000_0012_8k.wav:speech_samples/pronunciation_en_nine.mp3:speech_samples/pronunciation_en_five.mp3'
p484
g2
(g6
S'UUUUUU\xe5?'
p485
tp486
Rp487
sS'/home/ishwarya/Documents/math_modeling/AMR-Data-Embedding/audio_samples/Harvard_Sentences/OSR_us_000_0018_8k.wav:speech_samples/pronunciation_en_seven.mp3:speech_samples/pronunciation_en_one.mp3'
p488
g2
(g6
S'\x1a\xa4A\x1a\xa4A\xda?'
p489
tp490
Rp491
sS'/home/ishwarya/Documents/math_modeling/AMR-Data-Embedding/audio_samples/Harvard_Sentences/OSR_us_000_0059_8k.wav:speech_samples/pronunciation_en_one.mp3:speech_samples/pronunciation_en_five.mp3'
p492
g2
(g6
S'\\\xf8\xd5\x98H\x0f\xe4?'
p493
tp494
Rp495
sS'/home/ishwarya/Documents/math_modeling/AMR-Data-Embedding/audio_samples/Harvard_Sentences/OSR_us_000_0030_8k.wav:speech_samples/pronunciation_en_nine.mp3:speech_samples/pronunciation_en_five.mp3'
p496
g2
(g6
S'\x00\x00\x00\x00\x00\x00\xe0?'
p497
tp498
Rp499
sS'/home/ishwarya/Documents/math_modeling/AMR-Data-Embedding/audio_samples/Harvard_Sentences/OSR_us_000_0016_8k.wav:speech_samples/pronunciation_en_five.mp3:speech_samples/pronunciation_en_seven.mp3'
p500
g2
(g6
S'E>\xeb\x06S\xe4\xe3?'
p501
tp502
Rp503
sS'/home/ishwarya/Documents/math_modeling/AMR-Data-Embedding/audio_samples/Harvard_Sentences/OSR_us_000_0030_8k.wav:speech_samples/pronunciation_en_nine.mp3:speech_samples/pronunciation_en_one.mp3'
p504
g2
(g6
S'\xf4\x05}A_\xd0\xd7?'
p505
tp506
Rp507
sS'/home/ishwarya/Documents/math_modeling/AMR-Data-Embedding/audio_samples/Harvard_Sentences/OSR_us_000_0034_8k.wav:speech_samples/pronunciation_en_seven.mp3:speech_samples/pronunciation_en_one.mp3'
p508
g2
(g6
S'ffffff\xe6?'
p509
tp510
Rp511
sS'/home/ishwarya/Documents/math_modeling/AMR-Data-Embedding/audio_samples/Harvard_Sentences/OSR_us_000_0059_8k.wav:speech_samples/pronunciation_en_nine.mp3:speech_samples/pronunciation_en_five.mp3'
p512
g2
(g6
S'r\x1c\xc7q\x1c\xc7\xe1?'
p513
tp514
Rp515
sS'/home/ishwarya/Documents/math_modeling/AMR-Data-Embedding/audio_samples/Harvard_Sentences/OSR_us_000_0035_8k.wav:speech_samples/pronunciation_en_seven.mp3:speech_samples/pronunciation_en_one.mp3'
p516
g2
(g6
S'\x00\x00\x00\x00\x00\x00\xe8?'
p517
tp518
Rp519
sS'/home/ishwarya/Documents/math_modeling/AMR-Data-Embedding/audio_samples/Harvard_Sentences/OSR_us_000_0034_8k.wav:speech_samples/pronunciation_en_one.mp3:speech_samples/pronunciation_en_seven.mp3'
p520
g2
(g6
S'\x9a\x99\x99\x99\x99\x99\xc9?'
p521
tp522
Rp523
sS'/home/ishwarya/Documents/math_modeling/AMR-Data-Embedding/audio_samples/Harvard_Sentences/OSR_us_000_0014_8k.wav:speech_samples/pronunciation_en_one.mp3:speech_samples/pronunciation_en_zero2.mp3'
p524
g2
(g6
S'333333\xdf?'
p525
tp526
Rp527
sS'/home/ishwarya/Documents/math_modeling/AMR-Data-Embedding/audio_samples/Harvard_Sentences/OSR_us_000_0032_8k.wav:speech_samples/pronunciation_en_five.mp3:speech_samples/pronunciation_en_zero2.mp3'
p528
g2
(g6
S'\xab\xaa\xaa\xaa\xaa\xaa\xde?'
p529
tp530
Rp531
sS'/home/ishwarya/Documents/math_modeling/AMR-Data-Embedding/audio_samples/Harvard_Sentences/OSR_us_000_0031_8k.wav:speech_samples/pronunciation_en_five.mp3:speech_samples/pronunciation_en_one.mp3'
p532
g2
(g6
S'\x97\x96\x96\x96\x96\x96\xd6?'
p533
tp534
Rp535
sS'/home/ishwarya/Documents/math_modeling/AMR-Data-Embedding/audio_samples/Harvard_Sentences/OSR_us_000_0039_8k.wav:speech_samples/pronunciation_en_seven.mp3:speech_samples/pronunciation_en_nine.mp3'
p536
g2
(g6
S'\x9e\xd8\x89\x9d\xd8\x89\xdd?'
p537
tp538
Rp539
sS'/home/ishwarya/Documents/math_modeling/AMR-Data-Embedding/audio_samples/Harvard_Sentences/OSR_us_000_0015_8k.wav:speech_samples/pronunciation_en_zero2.mp3:speech_samples/pronunciation_en_seven.mp3'
p540
g2
(g6
S'\xde\xca>\x87\xd4\x04\xe3?'
p541
tp542
Rp543
sS'/home/ishwarya/Documents/math_modeling/AMR-Data-Embedding/audio_samples/Harvard_Sentences/OSR_us_000_0038_8k.wav:speech_samples/pronunciation_en_nine.mp3:speech_samples/pronunciation_en_five.mp3'
p544
g2
(g6
S'\x00\x00\x00\x00\x00\x00\xe4?'
p545
tp546
Rp547
sS'/home/ishwarya/Documents/math_modeling/AMR-Data-Embedding/audio_samples/Harvard_Sentences/OSR_us_000_0011_8k.wav:speech_samples/pronunciation_en_seven.mp3:speech_samples/pronunciation_en_five.mp3'
p548
g2
(g6
S'\xb7m\xdb\xb6m\xdb\xe6?'
p549
tp550
Rp551
sS'/home/ishwarya/Documents/math_modeling/AMR-Data-Embedding/audio_samples/Harvard_Sentences/OSR_us_000_0010_8k.wav:speech_samples/pronunciation_en_one.mp3:speech_samples/pronunciation_en_five.mp3'
p552
g2
(g6
S'ssssss\xe3?'
p553
tp554
Rp555
sS'/home/ishwarya/Documents/math_modeling/AMR-Data-Embedding/audio_samples/Harvard_Sentences/OSR_us_000_0034_8k.wav:speech_samples/pronunciation_en_zero2.mp3:speech_samples/pronunciation_en_seven.mp3'
p556
g2
(g6
S'222222\xe2?'
p557
tp558
Rp559
sS'/home/ishwarya/Documents/math_modeling/AMR-Data-Embedding/audio_samples/Harvard_Sentences/OSR_us_000_0038_8k.wav:speech_samples/pronunciation_en_five.mp3:speech_samples/pronunciation_en_one.mp3'
p560
g2
(g6
S'\xdb\xb6m\xdb\xb6m\xdb?'
p561
tp562
Rp563
sS'/home/ishwarya/Documents/math_modeling/AMR-Data-Embedding/audio_samples/Harvard_Sentences/OSR_us_000_0013_8k.wav:speech_samples/pronunciation_en_seven.mp3:speech_samples/pronunciation_en_zero2.mp3'
p564
g2
(g6
S'C\xb0\x8e6\xefS\xdc?'
p565
tp566
Rp567
sS'/home/ishwarya/Documents/math_modeling/AMR-Data-Embedding/audio_samples/Harvard_Sentences/OSR_us_000_0016_8k.wav:speech_samples/pronunciation_en_nine.mp3:speech_samples/pronunciation_en_seven.mp3'
p568
g2
(g6
S'333333\xe3?'
p569
tp570
Rp571
sS'/home/ishwarya/Documents/math_modeling/AMR-Data-Embedding/audio_samples/Harvard_Sentences/OSR_us_000_0016_8k.wav:speech_samples/pronunciation_en_nine.mp3:speech_samples/pronunciation_en_one.mp3'
p572
g2
(g6
S'I\x92$I\x92$\xd9?'
p573
tp574
Rp575
sS'/home/ishwarya/Documents/math_modeling/AMR-Data-Embedding/audio_samples/Harvard_Sentences/OSR_us_000_0061_8k.wav:speech_samples/pronunciation_en_one.mp3:speech_samples/pronunciation_en_zero2.mp3'
p576
g2
(g6
S't\xd1E\x17]t\xd9?'
p577
tp578
Rp579
sS'/home/ishwarya/Documents/math_modeling/AMR-Data-Embedding/audio_samples/Harvard_Sentences/OSR_us_000_0034_8k.wav:speech_samples/pronunciation_en_nine.mp3:speech_samples/pronunciation_en_zero2.mp3'
p580
g2
(g6
S'\x9a\x99\x99\x99\x99\x99\xd9?'
p581
tp582
Rp583
sS'/home/ishwarya/Documents/math_modeling/AMR-Data-Embedding/audio_samples/Harvard_Sentences/OSR_us_000_0013_8k.wav:speech_samples/pronunciation_en_five.mp3:speech_samples/pronunciation_en_seven.mp3'
p584
g2
(g6
S'\x00\x00\x00\x00\x00\x00\xe0?'
p585
tp586
Rp587
sS'/home/ishwarya/Documents/math_modeling/AMR-Data-Embedding/audio_samples/Harvard_Sentences/OSR_us_000_0018_8k.wav:speech_samples/pronunciation_en_zero2.mp3:speech_samples/pronunciation_en_one.mp3'
p588
g2
(g6
S'\xf74\xc2rO#\xdc?'
p589
tp590
Rp591
sS'/home/ishwarya/Documents/math_modeling/AMR-Data-Embedding/audio_samples/Harvard_Sentences/OSR_us_000_0037_8k.wav:speech_samples/pronunciation_en_five.mp3:speech_samples/pronunciation_en_nine.mp3'
p592
g2
(g6
S'UUUUUU\xe5?'
p593
tp594
Rp595
sS'/home/ishwarya/Documents/math_modeling/AMR-Data-Embedding/audio_samples/Harvard_Sentences/OSR_us_000_0031_8k.wav:speech_samples/pronunciation_en_nine.mp3:speech_samples/pronunciation_en_five.mp3'
p596
g2
(g6
S'\xb7m\xdb\xb6m\xdb\xd6?'
p597
tp598
Rp599
sS'/home/ishwarya/Documents/math_modeling/AMR-Data-Embedding/audio_samples/Harvard_Sentences/OSR_us_000_0059_8k.wav:speech_samples/pronunciation_en_one.mp3:speech_samples/pronunciation_en_zero2.mp3'
p600
g2
(g6
S'\xecQ\xb8\x1e\x85\xeb\xe1?'
p601
tp602
Rp603
sS'/home/ishwarya/Documents/math_modeling/AMR-Data-Embedding/audio_samples/Harvard_Sentences/OSR_us_000_0017_8k.wav:speech_samples/pronunciation_en_seven.mp3:speech_samples/pronunciation_en_nine.mp3'
p604
g2
(g6
S'\x00\x00\x00\x00\x00\x00\xe4?'
p605
tp606
Rp607
sS'/home/ishwarya/Documents/math_modeling/AMR-Data-Embedding/audio_samples/Harvard_Sentences/OSR_us_000_0013_8k.wav:speech_samples/pronunciation_en_one.mp3:speech_samples/pronunciation_en_zero2.mp3'
p608
g2
(g6
S'\xa7i\x9a\xa6i\x9a\xe6?'
p609
tp610
Rp611
sS'/home/ishwarya/Documents/math_modeling/AMR-Data-Embedding/audio_samples/Harvard_Sentences/OSR_us_000_0057_8k.wav:speech_samples/pronunciation_en_zero2.mp3:speech_samples/pronunciation_en_seven.mp3'
p612
g2
(g6
S'\x9c\xde\xf4\xa67\xbd\xe1?'
p613
tp614
Rp615
sS'/home/ishwarya/Documents/math_modeling/AMR-Data-Embedding/audio_samples/Harvard_Sentences/OSR_us_000_0036_8k.wav:speech_samples/pronunciation_en_zero2.mp3:speech_samples/pronunciation_en_five.mp3'
p616
g2
(g6
S'\x00\x00\x00\x00\x00\x80\xe1?'
p617
tp618
Rp619
sS'/home/ishwarya/Documents/math_modeling/AMR-Data-Embedding/audio_samples/Harvard_Sentences/OSR_us_000_0034_8k.wav:speech_samples/pronunciation_en_nine.mp3:speech_samples/pronunciation_en_one.mp3'
p620
g2
(g6
S'\x9a\x99\x99\x99\x99\x99\xd9?'
p621
tp622
Rp623
sS'/home/ishwarya/Documents/math_modeling/AMR-Data-Embedding/audio_samples/Harvard_Sentences/OSR_us_000_0017_8k.wav:speech_samples/pronunciation_en_zero2.mp3:speech_samples/pronunciation_en_seven.mp3'
p624
g2
(g6
S'\xab\xaa\xaa\xaa\xaa\xaa\xe2?'
p625
tp626
Rp627
sS'/home/ishwarya/Documents/math_modeling/AMR-Data-Embedding/audio_samples/Harvard_Sentences/OSR_us_000_0015_8k.wav:speech_samples/pronunciation_en_nine.mp3:speech_samples/pronunciation_en_zero2.mp3'
p628
g2
(g6
S'\xd9\x89\x9d\xd8\x89\x9d\xd8?'
p629
tp630
Rp631
sS'/home/ishwarya/Documents/math_modeling/AMR-Data-Embedding/audio_samples/Harvard_Sentences/OSR_us_000_0017_8k.wav:speech_samples/pronunciation_en_nine.mp3:speech_samples/pronunciation_en_five.mp3'
p632
g2
(g6
S'\x9a\x99\x99\x99\x99\x99\xd9?'
p633
tp634
Rp635
sS'/home/ishwarya/Documents/math_modeling/AMR-Data-Embedding/audio_samples/Harvard_Sentences/OSR_us_000_0012_8k.wav:speech_samples/pronunciation_en_one.mp3:speech_samples/pronunciation_en_zero2.mp3'
p636
g2
(g6
S'Q\xe9\xc8\x9e\x81\xa8\xe4?'
p637
tp638
Rp639
sS'/home/ishwarya/Documents/math_modeling/AMR-Data-Embedding/audio_samples/Harvard_Sentences/OSR_us_000_0014_8k.wav:speech_samples/pronunciation_en_five.mp3:speech_samples/pronunciation_en_one.mp3'
p640
g2
(g6
S'\t\xed%\xb4\x97\xd0\xde?'
p641
tp642
Rp643
sS'/home/ishwarya/Documents/math_modeling/AMR-Data-Embedding/audio_samples/Harvard_Sentences/OSR_us_000_0061_8k.wav:speech_samples/pronunciation_en_zero2.mp3:speech_samples/pronunciation_en_one.mp3'
p644
g2
(g6
S'\x8bl\xe7\xfb\xa9\xf1\xe2?'
p645
tp646
Rp647
sS'/home/ishwarya/Documents/math_modeling/AMR-Data-Embedding/audio_samples/Harvard_Sentences/OSR_us_000_0059_8k.wav:speech_samples/pronunciation_en_nine.mp3:speech_samples/pronunciation_en_seven.mp3'
p648
g2
(g6
S'333333\xe3?'
p649
tp650
Rp651
sS'/home/ishwarya/Documents/math_modeling/AMR-Data-Embedding/audio_samples/Harvard_Sentences/OSR_us_000_0060_8k.wav:speech_samples/pronunciation_en_zero2.mp3:speech_samples/pronunciation_en_five.mp3'
p652
g2
(g6
S'\xd2 \r\xd2 \r\xe2?'
p653
tp654
Rp655
sS'/home/ishwarya/Documents/math_modeling/AMR-Data-Embedding/audio_samples/Harvard_Sentences/OSR_us_000_0011_8k.wav:speech_samples/pronunciation_en_seven.mp3:speech_samples/pronunciation_en_nine.mp3'
p656
g2
(g6
S';\xb1\x13;\xb1\x13\xdb?'
p657
tp658
Rp659
sS'/home/ishwarya/Documents/math_modeling/AMR-Data-Embedding/audio_samples/Harvard_Sentences/OSR_us_000_0013_8k.wav:speech_samples/pronunciation_en_nine.mp3:speech_samples/pronunciation_en_seven.mp3'
p660
g2
(g6
S'UUUUUU\xd5?'
p661
tp662
Rp663
sS'/home/ishwarya/Documents/math_modeling/AMR-Data-Embedding/audio_samples/Harvard_Sentences/OSR_us_000_0011_8k.wav:speech_samples/pronunciation_en_five.mp3:speech_samples/pronunciation_en_zero2.mp3'
p664
g2
(g6
S'\x95RJ)\xa5\x94\xd2?'
p665
tp666
Rp667
sS'/home/ishwarya/Documents/math_modeling/AMR-Data-Embedding/audio_samples/Harvard_Sentences/OSR_us_000_0036_8k.wav:speech_samples/pronunciation_en_nine.mp3:speech_samples/pronunciation_en_one.mp3'
p668
g2
(g6
S'333333\xe3?'
p669
tp670
Rp671
sS'/home/ishwarya/Documents/math_modeling/AMR-Data-Embedding/audio_samples/Harvard_Sentences/OSR_us_000_0057_8k.wav:speech_samples/pronunciation_en_seven.mp3:speech_samples/pronunciation_en_zero2.mp3'
p672
g2
(g6
S'\xac1\x91\x1e\xa8\x9c\xdd?'
p673
tp674
Rp675
sS'/home/ishwarya/Documents/math_modeling/AMR-Data-Embedding/audio_samples/Harvard_Sentences/OSR_us_000_0059_8k.wav:speech_samples/pronunciation_en_five.mp3:speech_samples/pronunciation_en_one.mp3'
p676
g2
(g6
S'|\x1aa\xb9\xa7\x11\xd6?'
p677
tp678
Rp679
sS'/home/ishwarya/Documents/math_modeling/AMR-Data-Embedding/audio_samples/Harvard_Sentences/OSR_us_000_0012_8k.wav:speech_samples/pronunciation_en_seven.mp3:speech_samples/pronunciation_en_five.mp3'
p680
g2
(g6
S'\x17]t\xd1E\x17\xdd?'
p681
tp682
Rp683
sS'/home/ishwarya/Documents/math_modeling/AMR-Data-Embedding/audio_samples/Harvard_Sentences/OSR_us_000_0016_8k.wav:speech_samples/pronunciation_en_one.mp3:speech_samples/pronunciation_en_seven.mp3'
p684
g2
(g6
S'\x11\x11\x11\x11\x11\x11\xe1?'
p685
tp686
Rp687
sS'/home/ishwarya/Documents/math_modeling/AMR-Data-Embedding/audio_samples/Harvard_Sentences/OSR_us_000_0036_8k.wav:speech_samples/pronunciation_en_seven.mp3:speech_samples/pronunciation_en_one.mp3'
p688
g2
(g6
S'333333\xe3?'
p689
tp690
Rp691
sS'/home/ishwarya/Documents/math_modeling/AMR-Data-Embedding/audio_samples/Harvard_Sentences/OSR_us_000_0039_8k.wav:speech_samples/pronunciation_en_nine.mp3:speech_samples/pronunciation_en_zero2.mp3'
p692
g2
(g6
S'\xa8\x11\x96{\x1aa\xd9?'
p693
tp694
Rp695
sS'/home/ishwarya/Documents/math_modeling/AMR-Data-Embedding/audio_samples/Harvard_Sentences/OSR_us_000_0011_8k.wav:speech_samples/pronunciation_en_one.mp3:speech_samples/pronunciation_en_zero2.mp3'
p696
g2
(g6
S'`\xfa\xa5_\xfa\xa5\xdf?'
p697
tp698
Rp699
sS'/home/ishwarya/Documents/math_modeling/AMR-Data-Embedding/audio_samples/Harvard_Sentences/OSR_us_000_0030_8k.wav:speech_samples/pronunciation_en_zero2.mp3:speech_samples/pronunciation_en_five.mp3'
p700
g2
(g6
S'\xf1\xf0\xf0\xf0\xf0\xf0\xe0?'
p701
tp702
Rp703
sS'/home/ishwarya/Documents/math_modeling/AMR-Data-Embedding/audio_samples/Harvard_Sentences/OSR_us_000_0037_8k.wav:speech_samples/pronunciation_en_zero2.mp3:speech_samples/pronunciation_en_nine.mp3'
p704
g2
(g6
S'\xb2\xb1\xb1\xb1\xb1\xb1\xe1?'
p705
tp706
Rp707
sS'/home/ishwarya/Documents/math_modeling/AMR-Data-Embedding/audio_samples/Harvard_Sentences/OSR_us_000_0034_8k.wav:speech_samples/pronunciation_en_seven.mp3:speech_samples/pronunciation_en_five.mp3'
p708
g2
(g6
S'ffffff\xe6?'
p709
tp710
Rp711
sS'/home/ishwarya/Documents/math_modeling/AMR-Data-Embedding/audio_samples/Harvard_Sentences/OSR_us_000_0031_8k.wav:speech_samples/pronunciation_en_five.mp3:speech_samples/pronunciation_en_nine.mp3'
p712
g2
(g6
S'^Cy\r\xe55\xe4?'
p713
tp714
Rp715
sS'/home/ishwarya/Documents/math_modeling/AMR-Data-Embedding/audio_samples/Harvard_Sentences/OSR_us_000_0014_8k.wav:speech_samples/pronunciation_en_one.mp3:speech_samples/pronunciation_en_seven.mp3'
p716
g2
(g6
S'\x14\x14\x14\x14\x14\x14\xe4?'
p717
tp718
Rp719
sS'/home/ishwarya/Documents/math_modeling/AMR-Data-Embedding/audio_samples/Harvard_Sentences/OSR_us_000_0032_8k.wav:speech_samples/pronunciation_en_zero2.mp3:speech_samples/pronunciation_en_seven.mp3'
p720
g2
(g6
S';\xb1\x13;\xb1\x13\xe3?'
p721
tp722
Rp723
sS'/home/ishwarya/Documents/math_modeling/AMR-Data-Embedding/audio_samples/Harvard_Sentences/OSR_us_000_0018_8k.wav:speech_samples/pronunciation_en_nine.mp3:speech_samples/pronunciation_en_seven.mp3'
p724
g2
(g6
S'\x17]t\xd1E\x17\xdd?'
p725
tp726
Rp727
sS'/home/ishwarya/Documents/math_modeling/AMR-Data-Embedding/audio_samples/Harvard_Sentences/OSR_us_000_0018_8k.wav:speech_samples/pronunciation_en_one.mp3:speech_samples/pronunciation_en_zero2.mp3'
p728
g2
(g6
S'\x9bl\xb2\xc9&\x9b\xdc?'
p729
tp730
Rp731
sS'/home/ishwarya/Documents/math_modeling/AMR-Data-Embedding/audio_samples/Harvard_Sentences/OSR_us_000_0012_8k.wav:speech_samples/pronunciation_en_seven.mp3:speech_samples/pronunciation_en_one.mp3'
p732
g2
(g6
S'1\x9d\xc5t\x16\xd3\xd9?'
p733
tp734
Rp735
sS'/home/ishwarya/Documents/math_modeling/AMR-Data-Embedding/audio_samples/Harvard_Sentences/OSR_us_000_0030_8k.wav:speech_samples/pronunciation_en_five.mp3:speech_samples/pronunciation_en_one.mp3'
p736
g2
(g6
S'\x1b\xcak(\xaf\xa1\xdc?'
p737
tp738
Rp739
sS'/home/ishwarya/Documents/math_modeling/AMR-Data-Embedding/audio_samples/Harvard_Sentences/OSR_us_000_0038_8k.wav:speech_samples/pronunciation_en_seven.mp3:speech_samples/pronunciation_en_zero2.mp3'
p740
g2
(g6
S'#h8\xa9\xfb\xf2\xd8?'
p741
tp742
Rp743
sS'/home/ishwarya/Documents/math_modeling/AMR-Data-Embedding/audio_samples/Harvard_Sentences/OSR_us_000_0031_8k.wav:speech_samples/pronunciation_en_zero2.mp3:speech_samples/pronunciation_en_seven.mp3'
p744
g2
(g6
S'E\x13M4\xd1D\xe3?'
p745
tp746
Rp747
sS'/home/ishwarya/Documents/math_modeling/AMR-Data-Embedding/audio_samples/Harvard_Sentences/OSR_us_000_0013_8k.wav:speech_samples/pronunciation_en_zero2.mp3:speech_samples/pronunciation_en_seven.mp3'
p748
g2
(g6
S'\xf4\xf3\xf3\xf3\xf3\xf3\xe3?'
p749
tp750
Rp751
sS'/home/ishwarya/Documents/math_modeling/AMR-Data-Embedding/audio_samples/Harvard_Sentences/OSR_us_000_0061_8k.wav:speech_samples/pronunciation_en_five.mp3:speech_samples/pronunciation_en_seven.mp3'
p752
g2
(g6
S'\x00\x00\x00\x00\x00\x00\xe0?'
p753
tp754
Rp755
sS'/home/ishwarya/Documents/math_modeling/AMR-Data-Embedding/audio_samples/Harvard_Sentences/OSR_us_000_0012_8k.wav:speech_samples/pronunciation_en_zero2.mp3:speech_samples/pronunciation_en_nine.mp3'
p756
g2
(g6
S'\xbf]\xea\xc9\xf8\xed\xe2?'
p757
tp758
Rp759
sS'/home/ishwarya/Documents/math_modeling/AMR-Data-Embedding/audio_samples/Harvard_Sentences/OSR_us_000_0061_8k.wav:speech_samples/pronunciation_en_five.mp3:speech_samples/pronunciation_en_nine.mp3'
p760
g2
(g6
S'\x92$I\x92$I\xd2?'
p761
tp762
Rp763
sS'/home/ishwarya/Documents/math_modeling/AMR-Data-Embedding/audio_samples/Harvard_Sentences/OSR_us_000_0019_8k.wav:speech_samples/pronunciation_en_one.mp3:speech_samples/pronunciation_en_nine.mp3'
p764
g2
(g6
S'\x92$I\x92$I\xe2?'
p765
tp766
Rp767
sS'/home/ishwarya/Documents/math_modeling/AMR-Data-Embedding/audio_samples/Harvard_Sentences/OSR_us_000_0037_8k.wav:speech_samples/pronunciation_en_zero2.mp3:speech_samples/pronunciation_en_five.mp3'
p768
g2
(g6
S'h/\xa1\xbd\x84\xf6\xe2?'
p769
tp770
Rp771
sS'/home/ishwarya/Documents/math_modeling/AMR-Data-Embedding/audio_samples/Harvard_Sentences/OSR_us_000_0012_8k.wav:speech_samples/pronunciation_en_seven.mp3:speech_samples/pronunciation_en_zero2.mp3'
p772
g2
(g6
S'k\xdf\xb0\xf6\rk\xdf?'
p773
tp774
Rp775
sS'/home/ishwarya/Documents/math_modeling/AMR-Data-Embedding/audio_samples/Harvard_Sentences/OSR_us_000_0031_8k.wav:speech_samples/pronunciation_en_seven.mp3:speech_samples/pronunciation_en_zero2.mp3'
p776
g2
(g6
S'iiiiii\xd9?'
p777
tp778
Rp779
sS'/home/ishwarya/Documents/math_modeling/AMR-Data-Embedding/audio_samples/Harvard_Sentences/OSR_us_000_0060_8k.wav:speech_samples/pronunciation_en_nine.mp3:speech_samples/pronunciation_en_one.mp3'
p780
g2
(g6
S'\x00\x00\x00\x00\x00\x00\xe0?'
p781
tp782
Rp783
sS'/home/ishwarya/Documents/math_modeling/AMR-Data-Embedding/audio_samples/Harvard_Sentences/OSR_us_000_0016_8k.wav:speech_samples/pronunciation_en_zero2.mp3:speech_samples/pronunciation_en_nine.mp3'
p784
g2
(g6
S'\xd3\xd2\xd2\xd2\xd2\xd2\xe2?'
p785
tp786
Rp787
sS'/home/ishwarya/Documents/math_modeling/AMR-Data-Embedding/audio_samples/Harvard_Sentences/OSR_us_000_0061_8k.wav:speech_samples/pronunciation_en_nine.mp3:speech_samples/pronunciation_en_zero2.mp3'
p788
g2
(g6
S'\x1a\xa4A\x1a\xa4A\xda?'
p789
tp790
Rp791
sS'/home/ishwarya/Documents/math_modeling/AMR-Data-Embedding/audio_samples/Harvard_Sentences/OSR_us_000_0015_8k.wav:speech_samples/pronunciation_en_five.mp3:speech_samples/pronunciation_en_one.mp3'
p792
g2
(g6
S'\xc2\x14\xf9\xac\x1bL\xe1?'
p793
tp794
Rp795
sS'/home/ishwarya/Documents/math_modeling/AMR-Data-Embedding/audio_samples/Harvard_Sentences/OSR_us_000_0057_8k.wav:speech_samples/pronunciation_en_zero2.mp3:speech_samples/pronunciation_en_one.mp3'
p796
g2
(g6
S'\xa1\x0e\xea\xa0\x0e\xea\xe0?'
p797
tp798
Rp799
sS'/home/ishwarya/Documents/math_modeling/AMR-Data-Embedding/audio_samples/Harvard_Sentences/OSR_us_000_0016_8k.wav:speech_samples/pronunciation_en_seven.mp3:speech_samples/pronunciation_en_five.mp3'
p800
g2
(g6
S'\xdb\xb6m\xdb\xb6m\xdb?'
p801
tp802
Rp803
sS'/home/ishwarya/Documents/math_modeling/AMR-Data-Embedding/audio_samples/Harvard_Sentences/OSR_us_000_0018_8k.wav:speech_samples/pronunciation_en_one.mp3:speech_samples/pronunciation_en_seven.mp3'
p804
g2
(g6
S'\x00\x00\x00\x00\x00\x00\xe2?'
p805
tp806
Rp807
sS'/home/ishwarya/Documents/math_modeling/AMR-Data-Embedding/audio_samples/Harvard_Sentences/OSR_us_000_0039_8k.wav:speech_samples/pronunciation_en_five.mp3:speech_samples/pronunciation_en_nine.mp3'
p808
g2
(g6
S'UUUUUU\xd5?'
p809
tp810
Rp811
sS'/home/ishwarya/Documents/math_modeling/AMR-Data-Embedding/audio_samples/Harvard_Sentences/OSR_us_000_0037_8k.wav:speech_samples/pronunciation_en_nine.mp3:speech_samples/pronunciation_en_five.mp3'
p812
g2
(g6
S'\xb7m\xdb\xb6m\xdb\xd6?'
p813
tp814
Rp815
sS'/home/ishwarya/Documents/math_modeling/AMR-Data-Embedding/audio_samples/Harvard_Sentences/OSR_us_000_0038_8k.wav:speech_samples/pronunciation_en_seven.mp3:speech_samples/pronunciation_en_nine.mp3'
p816
g2
(g6
S'\x92$I\x92$I\xe2?'
p817
tp818
Rp819
sS'/home/ishwarya/Documents/math_modeling/AMR-Data-Embedding/audio_samples/Harvard_Sentences/OSR_us_000_0014_8k.wav:speech_samples/pronunciation_en_five.mp3:speech_samples/pronunciation_en_zero2.mp3'
p820
g2
(g6
S'\xeei\x84\xe5\x9eF\xd8?'
p821
tp822
Rp823
sS'/home/ishwarya/Documents/math_modeling/AMR-Data-Embedding/audio_samples/Harvard_Sentences/OSR_us_000_0037_8k.wav:speech_samples/pronunciation_en_zero2.mp3:speech_samples/pronunciation_en_one.mp3'
p824
g2
(g6
S'o0E>\xeb\x06\xe3?'
p825
tp826
Rp827
sS'/home/ishwarya/Documents/math_modeling/AMR-Data-Embedding/audio_samples/Harvard_Sentences/OSR_us_000_0017_8k.wav:speech_samples/pronunciation_en_five.mp3:speech_samples/pronunciation_en_seven.mp3'
p828
g2
(g6
S'\xd3\xd2\xd2\xd2\xd2\xd2\xd2?'
p829
tp830
Rp831
sS'/home/ishwarya/Documents/math_modeling/AMR-Data-Embedding/audio_samples/Harvard_Sentences/OSR_us_000_0039_8k.wav:speech_samples/pronunciation_en_five.mp3:speech_samples/pronunciation_en_one.mp3'
p832
g2
(g6
S'\x00\x00\x00\x00\x00\x00\xd0?'
p833
tp834
Rp835
sS'/home/ishwarya/Documents/math_modeling/AMR-Data-Embedding/audio_samples/Harvard_Sentences/OSR_us_000_0019_8k.wav:speech_samples/pronunciation_en_one.mp3:speech_samples/pronunciation_en_zero2.mp3'
p836
g2
(g6
S'n\xdb\xb6m\xdb\xb6\xe1?'
p837
tp838
Rp839
sS'/home/ishwarya/Documents/math_modeling/AMR-Data-Embedding/audio_samples/Harvard_Sentences/OSR_us_000_0038_8k.wav:speech_samples/pronunciation_en_zero2.mp3:speech_samples/pronunciation_en_one.mp3'
p840
g2
(g6
S'\xe6\x14\xbc\x9c\x82\x97\xe3?'
p841
tp842
Rp843
sS'/home/ishwarya/Documents/math_modeling/AMR-Data-Embedding/audio_samples/Harvard_Sentences/OSR_us_000_0013_8k.wav:speech_samples/pronunciation_en_five.mp3:speech_samples/pronunciation_en_nine.mp3'
p844
g2
(g6
S'\x9a\x99\x99\x99\x99\x99\xd9?'
p845
tp846
Rp847
sS'/home/ishwarya/Documents/math_modeling/AMR-Data-Embedding/audio_samples/Harvard_Sentences/OSR_us_000_0037_8k.wav:speech_samples/pronunciation_en_zero2.mp3:speech_samples/pronunciation_en_seven.mp3'
p848
g2
(g6
S'\xab\xaa\xaa\xaa\xaa\xaa\xe1?'
p849
tp850
Rp851
sS'/home/ishwarya/Documents/math_modeling/AMR-Data-Embedding/audio_samples/Harvard_Sentences/OSR_us_000_0039_8k.wav:speech_samples/pronunciation_en_zero2.mp3:speech_samples/pronunciation_en_one.mp3'
p852
g2
(g6
S"\xd2'}\xd2'}\xe2?"
p853
tp854
Rp855
sS'/home/ishwarya/Documents/math_modeling/AMR-Data-Embedding/audio_samples/Harvard_Sentences/OSR_us_000_0016_8k.wav:speech_samples/pronunciation_en_five.mp3:speech_samples/pronunciation_en_one.mp3'
p856
g2
(g6
S'\xef\xee\xee\xee\xee\xee\xde?'
p857
tp858
Rp859
sS'/home/ishwarya/Documents/math_modeling/AMR-Data-Embedding/audio_samples/Harvard_Sentences/OSR_us_000_0038_8k.wav:speech_samples/pronunciation_en_seven.mp3:speech_samples/pronunciation_en_five.mp3'
p860
g2
(g6
S'\x00\x00\x00\x00\x00\x00\x00\x00'
p861
tp862
Rp863
sS'/home/ishwarya/Documents/math_modeling/AMR-Data-Embedding/audio_samples/Harvard_Sentences/OSR_us_000_0037_8k.wav:speech_samples/pronunciation_en_one.mp3:speech_samples/pronunciation_en_zero2.mp3'
p864
g2
(g6
S'\x89\x88\x88\x88\x88\x88\xd8?'
p865
tp866
Rp867
sS'/home/ishwarya/Documents/math_modeling/AMR-Data-Embedding/audio_samples/Harvard_Sentences/OSR_us_000_0036_8k.wav:speech_samples/pronunciation_en_zero2.mp3:speech_samples/pronunciation_en_seven.mp3'
p868
g2
(g6
S'\xa7\xae\xe5\xe0f\xbf\xe0?'
p869
tp870
Rp871
sS'/home/ishwarya/Documents/math_modeling/AMR-Data-Embedding/audio_samples/Harvard_Sentences/OSR_us_000_0036_8k.wav:speech_samples/pronunciation_en_five.mp3:speech_samples/pronunciation_en_one.mp3'
p872
g2
(g6
S'UUUUUU\xe5?'
p873
tp874
Rp875
sS'/home/ishwarya/Documents/math_modeling/AMR-Data-Embedding/audio_samples/Harvard_Sentences/OSR_us_000_0035_8k.wav:speech_samples/pronunciation_en_one.mp3:speech_samples/pronunciation_en_seven.mp3'
p876
g2
(g6
S'\x1c\xc7q\x1c\xc7q\xdc?'
p877
tp878
Rp879
sS'/home/ishwarya/Documents/math_modeling/AMR-Data-Embedding/audio_samples/Harvard_Sentences/OSR_us_000_0039_8k.wav:speech_samples/pronunciation_en_zero2.mp3:speech_samples/pronunciation_en_nine.mp3'
p880
g2
(g6
S'\xcfF}g\xa3\xbe\xe3?'
p881
tp882
Rp883
sS'/home/ishwarya/Documents/math_modeling/AMR-Data-Embedding/audio_samples/Harvard_Sentences/OSR_us_000_0014_8k.wav:speech_samples/pronunciation_en_nine.mp3:speech_samples/pronunciation_en_seven.mp3'
p884
g2
(g6
S'\x00\x00\x00\x00\x00\x00\x00\x00'
p885
tp886
Rp887
sS'/home/ishwarya/Documents/math_modeling/AMR-Data-Embedding/audio_samples/Harvard_Sentences/OSR_us_000_0014_8k.wav:speech_samples/pronunciation_en_zero2.mp3:speech_samples/pronunciation_en_seven.mp3'
p888
g2
(g6
S'\xcd\xcc\xcc\xcc\xcc\xcc\xe2?'
p889
tp890
Rp891
sS'/home/ishwarya/Documents/math_modeling/AMR-Data-Embedding/audio_samples/Harvard_Sentences/OSR_us_000_0037_8k.wav:speech_samples/pronunciation_en_one.mp3:speech_samples/pronunciation_en_five.mp3'
p892
g2
(g6
S'\x9a\x99\x99\x99\x99\x99\xd9?'
p893
tp894
Rp895
sS'/home/ishwarya/Documents/math_modeling/AMR-Data-Embedding/audio_samples/Harvard_Sentences/OSR_us_000_0012_8k.wav:speech_samples/pronunciation_en_zero2.mp3:speech_samples/pronunciation_en_five.mp3'
p896
g2
(g6
S'333333\xe3?'
p897
tp898
Rp899
sS'/home/ishwarya/Documents/math_modeling/AMR-Data-Embedding/audio_samples/Harvard_Sentences/OSR_us_000_0012_8k.wav:speech_samples/pronunciation_en_zero2.mp3:speech_samples/pronunciation_en_one.mp3'
p900
g2
(g6
S'Rv\xbfQv\xbf\xe1?'
p901
tp902
Rp903
sS'/home/ishwarya/Documents/math_modeling/AMR-Data-Embedding/audio_samples/Harvard_Sentences/OSR_us_000_0035_8k.wav:speech_samples/pronunciation_en_one.mp3:speech_samples/pronunciation_en_zero2.mp3'
p904
g2
(g6
S'\r\xe55\x94\xd7P\xde?'
p905
tp906
Rp907
sS'/home/ishwarya/Documents/math_modeling/AMR-Data-Embedding/audio_samples/Harvard_Sentences/OSR_us_000_0037_8k.wav:speech_samples/pronunciation_en_seven.mp3:speech_samples/pronunciation_en_one.mp3'
p908
g2
(g6
S']t\xd1E\x17]\xe4?'
p909
tp910
Rp911
sS'/home/ishwarya/Documents/math_modeling/AMR-Data-Embedding/audio_samples/Harvard_Sentences/OSR_us_000_0012_8k.wav:speech_samples/pronunciation_en_nine.mp3:speech_samples/pronunciation_en_zero2.mp3'
p912
g2
(g6
S'6\x94\xd7P^C\xd9?'
p913
tp914
Rp915
sS'/home/ishwarya/Documents/math_modeling/AMR-Data-Embedding/audio_samples/Harvard_Sentences/OSR_us_000_0013_8k.wav:speech_samples/pronunciation_en_nine.mp3:speech_samples/pronunciation_en_zero2.mp3'
p916
g2
(g6
S'\xdb\xb6m\xdb\xb6m\xdb?'
p917
tp918
Rp919
sS'/home/ishwarya/Documents/math_modeling/AMR-Data-Embedding/audio_samples/Harvard_Sentences/OSR_us_000_0039_8k.wav:speech_samples/pronunciation_en_one.mp3:speech_samples/pronunciation_en_nine.mp3'
p920
g2
(g6
S'UUUUUU\xd5?'
p921
tp922
Rp923
sS'/home/ishwarya/Documents/math_modeling/AMR-Data-Embedding/audio_samples/Harvard_Sentences/OSR_us_000_0038_8k.wav:speech_samples/pronunciation_en_one.mp3:speech_samples/pronunciation_en_zero2.mp3'
p924
g2
(g6
S'<<<<<<\xdc?'
p925
tp926
Rp927
sS'/home/ishwarya/Documents/math_modeling/AMR-Data-Embedding/audio_samples/Harvard_Sentences/OSR_us_000_0011_8k.wav:speech_samples/pronunciation_en_five.mp3:speech_samples/pronunciation_en_seven.mp3'
p928
g2
(g6
S'r\x1c\xc7q\x1c\xc7\xe1?'
p929
tp930
Rp931
sS'/home/ishwarya/Documents/math_modeling/AMR-Data-Embedding/audio_samples/Harvard_Sentences/OSR_us_000_0031_8k.wav:speech_samples/pronunciation_en_one.mp3:speech_samples/pronunciation_en_five.mp3'
p932
g2
(g6
S'\x00\x00\x00\x00\x00\x00\xe8?'
p933
tp934
Rp935
sS'/home/ishwarya/Documents/math_modeling/AMR-Data-Embedding/audio_samples/Harvard_Sentences/OSR_us_000_0040_8k.wav:speech_samples/pronunciation_en_zero2.mp3:speech_samples/pronunciation_en_seven.mp3'
p936
g2
(g6
S'[\xac\x0c\xdf\x88\x02\xe3?'
p937
tp938
Rp939
sS'/home/ishwarya/Documents/math_modeling/AMR-Data-Embedding/audio_samples/Harvard_Sentences/OSR_us_000_0017_8k.wav:speech_samples/pronunciation_en_five.mp3:speech_samples/pronunciation_en_zero2.mp3'
p940
g2
(g6
S"'\x9bl\xb2\xc9&\xdb?"
p941
tp942
Rp943
sS'/home/ishwarya/Documents/math_modeling/AMR-Data-Embedding/audio_samples/Harvard_Sentences/OSR_us_000_0017_8k.wav:speech_samples/pronunciation_en_zero2.mp3:speech_samples/pronunciation_en_five.mp3'
p944
g2
(g6
S't\xd1E\x17]t\xe1?'
p945
tp946
Rp947
sS'/home/ishwarya/Documents/math_modeling/AMR-Data-Embedding/audio_samples/Harvard_Sentences/OSR_us_000_0057_8k.wav:speech_samples/pronunciation_en_one.mp3:speech_samples/pronunciation_en_zero2.mp3'
p948
g2
(g6
S'5&\xd2\x03\x95\xb3\xdb?'
p949
tp950
Rp951
sS'/home/ishwarya/Documents/math_modeling/AMR-Data-Embedding/audio_samples/Harvard_Sentences/OSR_us_000_0038_8k.wav:speech_samples/pronunciation_en_one.mp3:speech_samples/pronunciation_en_five.mp3'
p952
g2
(g6
S'\x00\x00\x00\x00\x00\x00\xe4?'
p953
tp954
Rp955
sS'/home/ishwarya/Documents/math_modeling/AMR-Data-Embedding/audio_samples/Harvard_Sentences/OSR_us_000_0011_8k.wav:speech_samples/pronunciation_en_seven.mp3:speech_samples/pronunciation_en_one.mp3'
p956
g2
(g6
S'\x1aa\xb9\xa7\x11\x96\xdb?'
p957
tp958
Rp959
sS'/home/ishwarya/Documents/math_modeling/AMR-Data-Embedding/audio_samples/Harvard_Sentences/OSR_us_000_0037_8k.wav:speech_samples/pronunciation_en_nine.mp3:speech_samples/pronunciation_en_seven.mp3'
p960
g2
(g6
S'\xdb\xb6m\xdb\xb6m\xdb?'
p961
tp962
Rp963
sS'/home/ishwarya/Documents/math_modeling/AMR-Data-Embedding/audio_samples/Harvard_Sentences/OSR_us_000_0019_8k.wav:speech_samples/pronunciation_en_nine.mp3:speech_samples/pronunciation_en_five.mp3'
p964
g2
(g6
S'/\xa1\xbd\x84\xf6\x12\xda?'
p965
tp966
Rp967
sS'/home/ishwarya/Documents/math_modeling/AMR-Data-Embedding/audio_samples/Harvard_Sentences/OSR_us_000_0036_8k.wav:speech_samples/pronunciation_en_seven.mp3:speech_samples/pronunciation_en_zero2.mp3'
p968
g2
(g6
S'\x03\x9d6\xd0i\x03\xdd?'
p969
tp970
Rp971
sS'/home/ishwarya/Documents/math_modeling/AMR-Data-Embedding/audio_samples/Harvard_Sentences/OSR_us_000_0038_8k.wav:speech_samples/pronunciation_en_zero2.mp3:speech_samples/pronunciation_en_nine.mp3'
p972
g2
(g6
S'333333\xe3?'
p973
tp974
Rp975
sS'/home/ishwarya/Documents/math_modeling/AMR-Data-Embedding/audio_samples/Harvard_Sentences/OSR_us_000_0061_8k.wav:speech_samples/pronunciation_en_five.mp3:speech_samples/pronunciation_en_zero2.mp3'
p976
g2
(g6
S'\xd3\x9b\xde\xf4\xa67\xdd?'
p977
tp978
Rp979
sS'/home/ishwarya/Documents/math_modeling/AMR-Data-Embedding/audio_samples/Harvard_Sentences/OSR_us_000_0037_8k.wav:speech_samples/pronunciation_en_five.mp3:speech_samples/pronunciation_en_zero2.mp3'
p980
g2
(g6
S'\x95RJ)\xa5\x94\xd2?'
p981
tp982
Rp983
sS'/home/ishwarya/Documents/math_modeling/AMR-Data-Embedding/audio_samples/Harvard_Sentences/OSR_us_000_0035_8k.wav:speech_samples/pronunciation_en_zero2.mp3:speech_samples/pronunciation_en_one.mp3'
p984
g2
(g6
S'\x00\x00\x00\x00\x00\x00\xe0?'
p985
tp986
Rp987
sS'/home/ishwarya/Documents/math_modeling/AMR-Data-Embedding/audio_samples/Harvard_Sentences/OSR_us_000_0012_8k.wav:speech_samples/pronunciation_en_five.mp3:speech_samples/pronunciation_en_one.mp3'
p988
g2
(g6
S'\x00\x00\x00\x00\x00\x00\xd8?'
p989
tp990
Rp991
sS'/home/ishwarya/Documents/math_modeling/AMR-Data-Embedding/audio_samples/Harvard_Sentences/OSR_us_000_0040_8k.wav:speech_samples/pronunciation_en_one.mp3:speech_samples/pronunciation_en_seven.mp3'
p992
g2
(g6
S'F\x17]t\xd1E\xd7?'
p993
tp994
Rp995
sS'/home/ishwarya/Documents/math_modeling/AMR-Data-Embedding/audio_samples/Harvard_Sentences/OSR_us_000_0015_8k.wav:speech_samples/pronunciation_en_five.mp3:speech_samples/pronunciation_en_zero2.mp3'
p996
g2
(g6
S'Y\xf2\x8b%\xbfX\xe2?'
p997
tp998
Rp999
sS'/home/ishwarya/Documents/math_modeling/AMR-Data-Embedding/audio_samples/Harvard_Sentences/OSR_us_000_0060_8k.wav:speech_samples/pronunciation_en_zero2.mp3:speech_samples/pronunciation_en_nine.mp3'
p1000
g2
(g6
S'\x00\x00\x00\x00\x00\x00\xe2?'
p1001
tp1002
Rp1003
sS'/home/ishwarya/Documents/math_modeling/AMR-Data-Embedding/audio_samples/Harvard_Sentences/OSR_us_000_0057_8k.wav:speech_samples/pronunciation_en_nine.mp3:speech_samples/pronunciation_en_five.mp3'
p1004
g2
(g6
S'\x17]t\xd1E\x17\xdd?'
p1005
tp1006
Rp1007
sS'/home/ishwarya/Documents/math_modeling/AMR-Data-Embedding/audio_samples/Harvard_Sentences/OSR_us_000_0057_8k.wav:speech_samples/pronunciation_en_seven.mp3:speech_samples/pronunciation_en_five.mp3'
p1008
g2
(g6
S'\x00\x00\x00\x00\x00\x00\xe2?'
p1009
tp1010
Rp1011
sS'/home/ishwarya/Documents/math_modeling/AMR-Data-Embedding/audio_samples/Harvard_Sentences/OSR_us_000_0018_8k.wav:speech_samples/pronunciation_en_five.mp3:speech_samples/pronunciation_en_nine.mp3'
p1012
g2
(g6
S'8\xbd\xe9Moz\xe3?'
p1013
tp1014
Rp1015
sS'/home/ishwarya/Documents/math_modeling/AMR-Data-Embedding/audio_samples/Harvard_Sentences/OSR_us_000_0034_8k.wav:speech_samples/pronunciation_en_nine.mp3:speech_samples/pronunciation_en_five.mp3'
p1016
g2
(g6
S'\xb7m\xdb\xb6m\xdb\xe6?'
p1017
tp1018
Rp1019
sS'/home/ishwarya/Documents/math_modeling/AMR-Data-Embedding/audio_samples/Harvard_Sentences/OSR_us_000_0036_8k.wav:speech_samples/pronunciation_en_nine.mp3:speech_samples/pronunciation_en_zero2.mp3'
p1020
g2
(g6
S'/\xba\xe8\xa2\x8b.\xda?'
p1021
tp1022
Rp1023
sS'/home/ishwarya/Documents/math_modeling/AMR-Data-Embedding/audio_samples/Harvard_Sentences/OSR_us_000_0034_8k.wav:speech_samples/pronunciation_en_seven.mp3:speech_samples/pronunciation_en_nine.mp3'
p1024
g2
(g6
S'\xab\xaa\xaa\xaa\xaa\xaa\xe2?'
p1025
tp1026
Rp1027
sS'/home/ishwarya/Documents/math_modeling/AMR-Data-Embedding/audio_samples/Harvard_Sentences/OSR_us_000_0030_8k.wav:speech_samples/pronunciation_en_five.mp3:speech_samples/pronunciation_en_zero2.mp3'
p1028
g2
(g6
S'\x1e\x1e\x1e\x1e\x1e\x1e\xde?'
p1029
tp1030
Rp1031
sS'/home/ishwarya/Documents/math_modeling/AMR-Data-Embedding/audio_samples/Harvard_Sentences/OSR_us_000_0057_8k.wav:speech_samples/pronunciation_en_five.mp3:speech_samples/pronunciation_en_one.mp3'
p1032
g2
(g6
S'\\\xbe\xe5[\xbe\xe5\xdb?'
p1033
tp1034
Rp1035
sS'/home/ishwarya/Documents/math_modeling/AMR-Data-Embedding/audio_samples/Harvard_Sentences/OSR_us_000_0018_8k.wav:speech_samples/pronunciation_en_five.mp3:speech_samples/pronunciation_en_seven.mp3'
p1036
g2
(g6
S'\x14;\xb1\x13;\xb1\xe3?'
p1037
tp1038
Rp1039
sS'/home/ishwarya/Documents/math_modeling/AMR-Data-Embedding/audio_samples/Harvard_Sentences/OSR_us_000_0035_8k.wav:speech_samples/pronunciation_en_nine.mp3:speech_samples/pronunciation_en_seven.mp3'
p1040
g2
(g6
S'\x9a\x99\x99\x99\x99\x99\xd9?'
p1041
tp1042
Rp1043
sS'/home/ishwarya/Documents/math_modeling/AMR-Data-Embedding/audio_samples/Harvard_Sentences/OSR_us_000_0059_8k.wav:speech_samples/pronunciation_en_seven.mp3:speech_samples/pronunciation_en_five.mp3'
p1044
g2
(g6
S'\x00\x00\x00\x00\x00\x00\xe0?'
p1045
tp1046
Rp1047
sS'/home/ishwarya/Documents/math_modeling/AMR-Data-Embedding/audio_samples/Harvard_Sentences/OSR_us_000_0039_8k.wav:speech_samples/pronunciation_en_nine.mp3:speech_samples/pronunciation_en_one.mp3'
p1048
g2
(g6
S'\x1c\xc7q\x1c\xc7q\xdc?'
p1049
tp1050
Rp1051
sS'/home/ishwarya/Documents/math_modeling/AMR-Data-Embedding/audio_samples/Harvard_Sentences/OSR_us_000_0014_8k.wav:speech_samples/pronunciation_en_seven.mp3:speech_samples/pronunciation_en_nine.mp3'
p1052
g2
(g6
S'\x00\x00\x00\x00\x00\x00\xf0?'
p1053
tp1054
Rp1055
sS'/home/ishwarya/Documents/math_modeling/AMR-Data-Embedding/audio_samples/Harvard_Sentences/OSR_us_000_0032_8k.wav:speech_samples/pronunciation_en_seven.mp3:speech_samples/pronunciation_en_five.mp3'
p1056
g2
(g6
S'\xd3\xd2\xd2\xd2\xd2\xd2\xd2?'
p1057
tp1058
Rp1059
sS'/home/ishwarya/Documents/math_modeling/AMR-Data-Embedding/audio_samples/Harvard_Sentences/OSR_us_000_0013_8k.wav:speech_samples/pronunciation_en_seven.mp3:speech_samples/pronunciation_en_nine.mp3'
p1060
g2
(g6
S'UUUUUU\xe5?'
p1061
tp1062
Rp1063
sS'/home/ishwarya/Documents/math_modeling/AMR-Data-Embedding/audio_samples/Harvard_Sentences/OSR_us_000_0013_8k.wav:speech_samples/pronunciation_en_five.mp3:speech_samples/pronunciation_en_one.mp3'
p1064
g2
(g6
S'\x00\x00\x00\x00\x00\x00\xd8?'
p1065
tp1066
Rp1067
sS'/home/ishwarya/Documents/math_modeling/AMR-Data-Embedding/audio_samples/Harvard_Sentences/OSR_us_000_0030_8k.wav:speech_samples/pronunciation_en_seven.mp3:speech_samples/pronunciation_en_five.mp3'
p1068
g2
(g6
S'\xb1\x13;\xb1\x13;\xe1?'
p1069
tp1070
Rp1071
sS'/home/ishwarya/Documents/math_modeling/AMR-Data-Embedding/audio_samples/Harvard_Sentences/OSR_us_000_0038_8k.wav:speech_samples/pronunciation_en_zero2.mp3:speech_samples/pronunciation_en_five.mp3'
p1072
g2
(g6
S'\x00\x00\x00\x00\x00\x00\xe2?'
p1073
tp1074
Rp1075
sS'/home/ishwarya/Documents/math_modeling/AMR-Data-Embedding/audio_samples/Harvard_Sentences/OSR_us_000_0030_8k.wav:speech_samples/pronunciation_en_seven.mp3:speech_samples/pronunciation_en_one.mp3'
p1076
g2
(g6
S'/\xa1\xbd\x84\xf6\x12\xda?'
p1077
tp1078
Rp1079
sS'/home/ishwarya/Documents/math_modeling/AMR-Data-Embedding/audio_samples/Harvard_Sentences/OSR_us_000_0018_8k.wav:speech_samples/pronunciation_en_one.mp3:speech_samples/pronunciation_en_five.mp3'
p1080
g2
(g6
S'/\xba\xe8\xa2\x8b.\xe2?'
p1081
tp1082
Rp1083
sS'/home/ishwarya/Documents/math_modeling/AMR-Data-Embedding/audio_samples/Harvard_Sentences/OSR_us_000_0034_8k.wav:speech_samples/pronunciation_en_five.mp3:speech_samples/pronunciation_en_zero2.mp3'
p1084
g2
(g6
S'\xbc\xbb\xbb\xbb\xbb\xbb\xdb?'
p1085
tp1086
Rp1087
sS'/home/ishwarya/Documents/math_modeling/AMR-Data-Embedding/audio_samples/Harvard_Sentences/OSR_us_000_0030_8k.wav:speech_samples/pronunciation_en_zero2.mp3:speech_samples/pronunciation_en_seven.mp3'
p1088
g2
(g6
S'R\xf7\xe5\xb1\x15A\xe3?'
p1089
tp1090
Rp1091
sS'/home/ishwarya/Documents/math_modeling/AMR-Data-Embedding/audio_samples/Harvard_Sentences/OSR_us_000_0010_8k.wav:speech_samples/pronunciation_en_zero2.mp3:speech_samples/pronunciation_en_five.mp3'
p1092
g2
(g6
S'h/\xa1\xbd\x84\xf6\xe2?'
p1093
tp1094
Rp1095
sS'/home/ishwarya/Documents/math_modeling/AMR-Data-Embedding/audio_samples/Harvard_Sentences/OSR_us_000_0015_8k.wav:speech_samples/pronunciation_en_seven.mp3:speech_samples/pronunciation_en_one.mp3'
p1096
g2
(g6
S'\xa77\xbd\xe9Mo\xda?'
p1097
tp1098
Rp1099
sS'/home/ishwarya/Documents/math_modeling/AMR-Data-Embedding/audio_samples/Harvard_Sentences/OSR_us_000_0057_8k.wav:speech_samples/pronunciation_en_five.mp3:speech_samples/pronunciation_en_nine.mp3'
p1100
g2
(g6
S'\xab\xaa\xaa\xaa\xaa\xaa\xea?'
p1101
tp1102
Rp1103
sS'/home/ishwarya/Documents/math_modeling/AMR-Data-Embedding/audio_samples/Harvard_Sentences/OSR_us_000_0016_8k.wav:speech_samples/pronunciation_en_zero2.mp3:speech_samples/pronunciation_en_seven.mp3'
p1104
g2
(g6
S'\xbd\xe9Moz\xd3\xe3?'
p1105
tp1106
Rp1107
sS'/home/ishwarya/Documents/math_modeling/AMR-Data-Embedding/audio_samples/Harvard_Sentences/OSR_us_000_0040_8k.wav:speech_samples/pronunciation_en_nine.mp3:speech_samples/pronunciation_en_five.mp3'
p1108
g2
(g6
S'F\x17]t\xd1E\xd7?'
p1109
tp1110
Rp1111
sS'/home/ishwarya/Documents/math_modeling/AMR-Data-Embedding/audio_samples/Harvard_Sentences/OSR_us_000_0039_8k.wav:speech_samples/pronunciation_en_five.mp3:speech_samples/pronunciation_en_zero2.mp3'
p1112
g2
(g6
S"'\x9bl\xb2\xc9&\xdb?"
p1113
tp1114
Rp1115
sS'/home/ishwarya/Documents/math_modeling/AMR-Data-Embedding/audio_samples/Harvard_Sentences/OSR_us_000_0060_8k.wav:speech_samples/pronunciation_en_five.mp3:speech_samples/pronunciation_en_one.mp3'
p1116
g2
(g6
S'\x00\x00\x00\x00\x00\x00\xe2?'
p1117
tp1118
Rp1119
sS'/home/ishwarya/Documents/math_modeling/AMR-Data-Embedding/audio_samples/Harvard_Sentences/OSR_us_000_0037_8k.wav:speech_samples/pronunciation_en_seven.mp3:speech_samples/pronunciation_en_five.mp3'
p1120
g2
(g6
S'r\x1c\xc7q\x1c\xc7\xe1?'
p1121
tp1122
Rp1123
sS'/home/ishwarya/Documents/math_modeling/AMR-Data-Embedding/audio_samples/Harvard_Sentences/OSR_us_000_0011_8k.wav:speech_samples/pronunciation_en_one.mp3:speech_samples/pronunciation_en_seven.mp3'
p1124
g2
(g6
S'\x96{\x1aa\xb9\xa7\xe1?'
p1125
tp1126
Rp1127
sS'/home/ishwarya/Documents/math_modeling/AMR-Data-Embedding/audio_samples/Harvard_Sentences/OSR_us_000_0010_8k.wav:speech_samples/pronunciation_en_five.mp3:speech_samples/pronunciation_en_zero2.mp3'
p1128
g2
(g6
S'\x95RJ)\xa5\x94\xd2?'
p1129
tp1130
Rp1131
sS'/home/ishwarya/Documents/math_modeling/AMR-Data-Embedding/audio_samples/Harvard_Sentences/OSR_us_000_0060_8k.wav:speech_samples/pronunciation_en_one.mp3:speech_samples/pronunciation_en_five.mp3'
p1132
g2
(g6
S'\xdb\xb6m\xdb\xb6m\xdb?'
p1133
tp1134
Rp1135
sS'/home/ishwarya/Documents/math_modeling/AMR-Data-Embedding/audio_samples/Harvard_Sentences/OSR_us_000_0038_8k.wav:speech_samples/pronunciation_en_nine.mp3:speech_samples/pronunciation_en_seven.mp3'
p1136
g2
(g6
S'\x00\x00\x00\x00\x00\x00\xe0?'
p1137
tp1138
Rp1139
sS'/home/ishwarya/Documents/math_modeling/AMR-Data-Embedding/audio_samples/Harvard_Sentences/OSR_us_000_0040_8k.wav:speech_samples/pronunciation_en_nine.mp3:speech_samples/pronunciation_en_seven.mp3'
p1140
g2
(g6
S'ZZZZZZ\xda?'
p1141
tp1142
Rp1143
sS'/home/ishwarya/Documents/math_modeling/AMR-Data-Embedding/audio_samples/Harvard_Sentences/OSR_us_000_0011_8k.wav:speech_samples/pronunciation_en_five.mp3:speech_samples/pronunciation_en_one.mp3'
p1144
g2
(g6
S"'\x9bl\xb2\xc9&\xdb?"
p1145
tp1146
Rp1147
sS'/home/ishwarya/Documents/math_modeling/AMR-Data-Embedding/audio_samples/Harvard_Sentences/OSR_us_000_0059_8k.wav:speech_samples/pronunciation_en_zero2.mp3:speech_samples/pronunciation_en_one.mp3'
p1148
g2
(g6
S'\xea\xa0\x0e\xea\xa0\x0e\xe2?'
p1149
tp1150
Rp1151
sS'/home/ishwarya/Documents/math_modeling/AMR-Data-Embedding/audio_samples/Harvard_Sentences/OSR_us_000_0010_8k.wav:speech_samples/pronunciation_en_nine.mp3:speech_samples/pronunciation_en_one.mp3'
p1152
g2
(g6
S'\xa77\xbd\xe9Mo\xda?'
p1153
tp1154
Rp1155
sS'/home/ishwarya/Documents/math_modeling/AMR-Data-Embedding/audio_samples/Harvard_Sentences/OSR_us_000_0035_8k.wav:speech_samples/pronunciation_en_seven.mp3:speech_samples/pronunciation_en_nine.mp3'
p1156
g2
(g6
S'333333\xe3?'
p1157
tp1158
Rp1159
sS'/home/ishwarya/Documents/math_modeling/AMR-Data-Embedding/audio_samples/Harvard_Sentences/OSR_us_000_0060_8k.wav:speech_samples/pronunciation_en_one.mp3:speech_samples/pronunciation_en_nine.mp3'
p1160
g2
(g6
S'\t\xed%\xb4\x97\xd0\xde?'
p1161
tp1162
Rp1163
sS'/home/ishwarya/Documents/math_modeling/AMR-Data-Embedding/audio_samples/Harvard_Sentences/OSR_us_000_0040_8k.wav:speech_samples/pronunciation_en_five.mp3:speech_samples/pronunciation_en_zero2.mp3'
p1164
g2
(g6
S'UUUUUU\xd5?'
p1165
tp1166
Rp1167
sS'/home/ishwarya/Documents/math_modeling/AMR-Data-Embedding/audio_samples/Harvard_Sentences/OSR_us_000_0018_8k.wav:speech_samples/pronunciation_en_one.mp3:speech_samples/pronunciation_en_nine.mp3'
p1168
g2
(g6
S'\x9a4i\xd2\xa4I\xe3?'
p1169
tp1170
Rp1171
sS'/home/ishwarya/Documents/math_modeling/AMR-Data-Embedding/audio_samples/Harvard_Sentences/OSR_us_000_0016_8k.wav:speech_samples/pronunciation_en_seven.mp3:speech_samples/pronunciation_en_nine.mp3'
p1172
g2
(g6
S'\xab\xaa\xaa\xaa\xaa\xaa\xea?'
p1173
tp1174
Rp1175
sS'/home/ishwarya/Documents/math_modeling/AMR-Data-Embedding/audio_samples/Harvard_Sentences/OSR_us_000_0014_8k.wav:speech_samples/pronunciation_en_five.mp3:speech_samples/pronunciation_en_seven.mp3'
p1176
g2
(g6
S'\x92$I\x92$I\xe2?'
p1177
tp1178
Rp1179
sS'/home/ishwarya/Documents/math_modeling/AMR-Data-Embedding/audio_samples/Harvard_Sentences/OSR_us_000_0018_8k.wav:speech_samples/pronunciation_en_seven.mp3:speech_samples/pronunciation_en_zero2.mp3'
p1180
g2
(g6
S'\xa2\x156\x07\x12\xad\xe0?'
p1181
tp1182
Rp1183
sS'/home/ishwarya/Documents/math_modeling/AMR-Data-Embedding/audio_samples/Harvard_Sentences/OSR_us_000_0059_8k.wav:speech_samples/pronunciation_en_zero2.mp3:speech_samples/pronunciation_en_nine.mp3'
p1184
g2
(g6
S'\xfa|>\x9f\xcf\xe7\xe3?'
p1185
tp1186
Rp1187
sS'/home/ishwarya/Documents/math_modeling/AMR-Data-Embedding/audio_samples/Harvard_Sentences/OSR_us_000_0030_8k.wav:speech_samples/pronunciation_en_nine.mp3:speech_samples/pronunciation_en_zero2.mp3'
p1188
g2
(g6
S'\xdd\xdc\xdc\xdc\xdc\xdc\xdc?'
p1189
tp1190
Rp1191
sS'/home/ishwarya/Documents/math_modeling/AMR-Data-Embedding/audio_samples/Harvard_Sentences/OSR_us_000_0012_8k.wav:speech_samples/pronunciation_en_five.mp3:speech_samples/pronunciation_en_seven.mp3'
p1192
g2
(g6
S'\x00\x00\x00\x00\x00\x00\xe4?'
p1193
tp1194
Rp1195
sS'/home/ishwarya/Documents/math_modeling/AMR-Data-Embedding/audio_samples/Harvard_Sentences/OSR_us_000_0013_8k.wav:speech_samples/pronunciation_en_one.mp3:speech_samples/pronunciation_en_seven.mp3'
p1196
g2
(g6
S'\xd6\x945eMY\xe3?'
p1197
tp1198
Rp1199
sS'/home/ishwarya/Documents/math_modeling/AMR-Data-Embedding/audio_samples/Harvard_Sentences/OSR_us_000_0038_8k.wav:speech_samples/pronunciation_en_five.mp3:speech_samples/pronunciation_en_seven.mp3'
p1200
g2
(g6
S'\x00\x00\x00\x00\x00\x00\xf0?'
p1201
tp1202
Rp1203
sS'/home/ishwarya/Documents/math_modeling/AMR-Data-Embedding/audio_samples/Harvard_Sentences/OSR_us_000_0059_8k.wav:speech_samples/pronunciation_en_five.mp3:speech_samples/pronunciation_en_zero2.mp3'
p1204
g2
(g6
S'/\xa1\xbd\x84\xf6\x12\xda?'
p1205
tp1206
Rp1207
sS'/home/ishwarya/Documents/math_modeling/AMR-Data-Embedding/audio_samples/Harvard_Sentences/OSR_us_000_0034_8k.wav:speech_samples/pronunciation_en_seven.mp3:speech_samples/pronunciation_en_zero2.mp3'
p1208
g2
(g6
S'\x00\x00\x00\x00\x00\x00\xe0?'
p1209
tp1210
Rp1211
sS'/home/ishwarya/Documents/math_modeling/AMR-Data-Embedding/audio_samples/Harvard_Sentences/OSR_us_000_0017_8k.wav:speech_samples/pronunciation_en_seven.mp3:speech_samples/pronunciation_en_five.mp3'
p1212
g2
(g6
S'\x9e\xd8\x89\x9d\xd8\x89\xdd?'
p1213
tp1214
Rp1215
sS'/home/ishwarya/Documents/math_modeling/AMR-Data-Embedding/audio_samples/Harvard_Sentences/OSR_us_000_0036_8k.wav:speech_samples/pronunciation_en_five.mp3:speech_samples/pronunciation_en_nine.mp3'
p1216
g2
(g6
S'F\x17]t\xd1E\xe7?'
p1217
tp1218
Rp1219
sS'/home/ishwarya/Documents/math_modeling/AMR-Data-Embedding/audio_samples/Harvard_Sentences/OSR_us_000_0014_8k.wav:speech_samples/pronunciation_en_one.mp3:speech_samples/pronunciation_en_nine.mp3'
p1220
g2
(g6
S'\x9ds\xce9\xe7\x9c\xe3?'
p1221
tp1222
Rp1223
sS'/home/ishwarya/Documents/math_modeling/AMR-Data-Embedding/audio_samples/Harvard_Sentences/OSR_us_000_0030_8k.wav:speech_samples/pronunciation_en_one.mp3:speech_samples/pronunciation_en_five.mp3'
p1224
g2
(g6
S'\xe5\xec\x16~5&\xe2?'
p1225
tp1226
Rp1227
sS'/home/ishwarya/Documents/math_modeling/AMR-Data-Embedding/audio_samples/Harvard_Sentences/OSR_us_000_0040_8k.wav:speech_samples/pronunciation_en_seven.mp3:speech_samples/pronunciation_en_five.mp3'
p1228
g2
(g6
S'\x9a\x99\x99\x99\x99\x99\xd9?'
p1229
tp1230
Rp1231
sS'/home/ishwarya/Documents/math_modeling/AMR-Data-Embedding/audio_samples/Harvard_Sentences/OSR_us_000_0016_8k.wav:speech_samples/pronunciation_en_five.mp3:speech_samples/pronunciation_en_nine.mp3'
p1232
g2
(g6
S'\xd6\x945eMY\xe3?'
p1233
tp1234
Rp1235
sS'/home/ishwarya/Documents/math_modeling/AMR-Data-Embedding/audio_samples/Harvard_Sentences/OSR_us_000_0036_8k.wav:speech_samples/pronunciation_en_nine.mp3:speech_samples/pronunciation_en_seven.mp3'
p1236
g2
(g6
S'\x00\x00\x00\x00\x00\x00\xd0?'
p1237
tp1238
Rp1239
sS'/home/ishwarya/Documents/math_modeling/AMR-Data-Embedding/audio_samples/Harvard_Sentences/OSR_us_000_0061_8k.wav:speech_samples/pronunciation_en_seven.mp3:speech_samples/pronunciation_en_five.mp3'
p1240
g2
(g6
S'\x14;\xb1\x13;\xb1\xd3?'
p1241
tp1242
Rp1243
sS'/home/ishwarya/Documents/math_modeling/AMR-Data-Embedding/audio_samples/Harvard_Sentences/OSR_us_000_0036_8k.wav:speech_samples/pronunciation_en_nine.mp3:speech_samples/pronunciation_en_five.mp3'
p1244
g2
(g6
S't\xd1E\x17]t\xd1?'
p1245
tp1246
Rp1247
sS'/home/ishwarya/Documents/math_modeling/AMR-Data-Embedding/audio_samples/Harvard_Sentences/OSR_us_000_0016_8k.wav:speech_samples/pronunciation_en_seven.mp3:speech_samples/pronunciation_en_one.mp3'
p1248
g2
(g6
S'\x18\x86a\x18\x86a\xd8?'
p1249
tp1250
Rp1251
sS'/home/ishwarya/Documents/math_modeling/AMR-Data-Embedding/audio_samples/Harvard_Sentences/OSR_us_000_0036_8k.wav:speech_samples/pronunciation_en_zero2.mp3:speech_samples/pronunciation_en_nine.mp3'
p1252
g2
(g6
S'\xd7\xa3p=\n\xd7\xe3?'
p1253
tp1254
Rp1255
sS'/home/ishwarya/Documents/math_modeling/AMR-Data-Embedding/audio_samples/Harvard_Sentences/OSR_us_000_0061_8k.wav:speech_samples/pronunciation_en_nine.mp3:speech_samples/pronunciation_en_five.mp3'
p1256
g2
(g6
S'ffffff\xe6?'
p1257
tp1258
Rp1259
sS'/home/ishwarya/Documents/math_modeling/AMR-Data-Embedding/audio_samples/Harvard_Sentences/OSR_us_000_0014_8k.wav:speech_samples/pronunciation_en_seven.mp3:speech_samples/pronunciation_en_five.mp3'
p1260
g2
(g6
S'\xdb\xb6m\xdb\xb6m\xdb?'
p1261
tp1262
Rp1263
sS'/home/ishwarya/Documents/math_modeling/AMR-Data-Embedding/audio_samples/Harvard_Sentences/OSR_us_000_0032_8k.wav:speech_samples/pronunciation_en_zero2.mp3:speech_samples/pronunciation_en_five.mp3'
p1264
g2
(g6
S'{2~\xbb\xd4\x93\xe1?'
p1265
tp1266
Rp1267
sS'/home/ishwarya/Documents/math_modeling/AMR-Data-Embedding/audio_samples/Harvard_Sentences/OSR_us_000_0017_8k.wav:speech_samples/pronunciation_en_seven.mp3:speech_samples/pronunciation_en_one.mp3'
p1268
g2
(g6
S'\xb7m\xdb\xb6m\xdb\xe6?'
p1269
tp1270
Rp1271
sS'/home/ishwarya/Documents/math_modeling/AMR-Data-Embedding/audio_samples/Harvard_Sentences/OSR_us_000_0032_8k.wav:speech_samples/pronunciation_en_nine.mp3:speech_samples/pronunciation_en_five.mp3'
p1272
g2
(g6
S'\x00\x00\x00\x00\x00\x00\xe0?'
p1273
tp1274
Rp1275
sS'/home/ishwarya/Documents/math_modeling/AMR-Data-Embedding/audio_samples/Harvard_Sentences/OSR_us_000_0037_8k.wav:speech_samples/pronunciation_en_five.mp3:speech_samples/pronunciation_en_one.mp3'
p1276
g2
(g6
S'333333\xe3?'
p1277
tp1278
Rp1279
sS'/home/ishwarya/Documents/math_modeling/AMR-Data-Embedding/audio_samples/Harvard_Sentences/OSR_us_000_0060_8k.wav:speech_samples/pronunciation_en_nine.mp3:speech_samples/pronunciation_en_zero2.mp3'
p1280
g2
(g6
S'\xab\xaa\xaa\xaa\xaa\xaa\xda?'
p1281
tp1282
Rp1283
sS'/home/ishwarya/Documents/math_modeling/AMR-Data-Embedding/audio_samples/Harvard_Sentences/OSR_us_000_0012_8k.wav:speech_samples/pronunciation_en_seven.mp3:speech_samples/pronunciation_en_nine.mp3'
p1284
g2
(g6
S'\x00\x00\x00\x00\x00\x00\xe0?'
p1285
tp1286
Rp1287
sS'/home/ishwarya/Documents/math_modeling/AMR-Data-Embedding/audio_samples/Harvard_Sentences/OSR_us_000_0012_8k.wav:speech_samples/pronunciation_en_one.mp3:speech_samples/pronunciation_en_nine.mp3'
p1288
g2
(g6
S'\xcfF}g\xa3\xbe\xe3?'
p1289
tp1290
Rp1291
sS'/home/ishwarya/Documents/math_modeling/AMR-Data-Embedding/audio_samples/Harvard_Sentences/OSR_us_000_0040_8k.wav:speech_samples/pronunciation_en_one.mp3:speech_samples/pronunciation_en_five.mp3'
p1292
g2
(g6
S'\x9a\x99\x99\x99\x99\x99\xd9?'
p1293
tp1294
Rp1295
sS'/home/ishwarya/Documents/math_modeling/AMR-Data-Embedding/audio_samples/Harvard_Sentences/OSR_us_000_0019_8k.wav:speech_samples/pronunciation_en_five.mp3:speech_samples/pronunciation_en_nine.mp3'
p1296
g2
(g6
S'O#,\xf74\xc2\xe2?'
p1297
tp1298
Rp1299
sS'/home/ishwarya/Documents/math_modeling/AMR-Data-Embedding/audio_samples/Harvard_Sentences/OSR_us_000_0018_8k.wav:speech_samples/pronunciation_en_five.mp3:speech_samples/pronunciation_en_zero2.mp3'
p1300
g2
(g6
S'\xe48\x8e\xe38\x8e\xe3?'
p1301
tp1302
Rp1303
sS'/home/ishwarya/Documents/math_modeling/AMR-Data-Embedding/audio_samples/Harvard_Sentences/OSR_us_000_0017_8k.wav:speech_samples/pronunciation_en_five.mp3:speech_samples/pronunciation_en_nine.mp3'
p1304
g2
(g6
S't\xd1E\x17]t\xe1?'
p1305
tp1306
Rp1307
sS'/home/ishwarya/Documents/math_modeling/AMR-Data-Embedding/audio_samples/Harvard_Sentences/OSR_us_000_0061_8k.wav:speech_samples/pronunciation_en_zero2.mp3:speech_samples/pronunciation_en_seven.mp3'
p1308
g2
(g6
S'\xef\xcbc+\x82\x86\xe3?'
p1309
tp1310
Rp1311
sS'/home/ishwarya/Documents/math_modeling/AMR-Data-Embedding/audio_samples/Harvard_Sentences/OSR_us_000_0012_8k.wav:speech_samples/pronunciation_en_nine.mp3:speech_samples/pronunciation_en_one.mp3'
p1312
g2
(g6
S'ZZZZZZ\xda?'
p1313
tp1314
Rp1315
sS'/home/ishwarya/Documents/math_modeling/AMR-Data-Embedding/audio_samples/Harvard_Sentences/OSR_us_000_0017_8k.wav:speech_samples/pronunciation_en_nine.mp3:speech_samples/pronunciation_en_seven.mp3'
p1316
g2
(g6
S'UUUUUU\xd5?'
p1317
tp1318
Rp1319
sS'/home/ishwarya/Documents/math_modeling/AMR-Data-Embedding/audio_samples/Harvard_Sentences/OSR_us_000_0019_8k.wav:speech_samples/pronunciation_en_seven.mp3:speech_samples/pronunciation_en_one.mp3'
p1320
g2
(g6
S'F\x17]t\xd1E\xd7?'
p1321
tp1322
Rp1323
sS'/home/ishwarya/Documents/math_modeling/AMR-Data-Embedding/audio_samples/Harvard_Sentences/OSR_us_000_0017_8k.wav:speech_samples/pronunciation_en_one.mp3:speech_samples/pronunciation_en_nine.mp3'
p1324
g2
(g6
S'\xcd\xcc\xcc\xcc\xcc\xcc\xdc?'
p1325
tp1326
Rp1327
sS'/home/ishwarya/Documents/math_modeling/AMR-Data-Embedding/audio_samples/Harvard_Sentences/OSR_us_000_0034_8k.wav:speech_samples/pronunciation_en_one.mp3:speech_samples/pronunciation_en_zero2.mp3'
p1328
g2
(g6
S'\x19\x19\x19\x19\x19\x19\xd9?'
p1329
tp1330
Rp1331
sS'/home/ishwarya/Documents/math_modeling/AMR-Data-Embedding/audio_samples/Harvard_Sentences/OSR_us_000_0039_8k.wav:speech_samples/pronunciation_en_one.mp3:speech_samples/pronunciation_en_seven.mp3'
p1332
g2
(g6
S'\x00\x00\x00\x00\x00\x00\xd8?'
p1333
tp1334
Rp1335
sS'/home/ishwarya/Documents/math_modeling/AMR-Data-Embedding/audio_samples/Harvard_Sentences/OSR_us_000_0015_8k.wav:speech_samples/pronunciation_en_one.mp3:speech_samples/pronunciation_en_zero2.mp3'
p1336
g2
(g6
S'>\xf8\xe0\x83\x0f>\xd8?'
p1337
tp1338
Rp1339
sS'/home/ishwarya/Documents/math_modeling/AMR-Data-Embedding/audio_samples/Harvard_Sentences/OSR_us_000_0018_8k.wav:speech_samples/pronunciation_en_seven.mp3:speech_samples/pronunciation_en_five.mp3'
p1340
g2
(g6
S'\x9e\xd8\x89\x9d\xd8\x89\xdd?'
p1341
tp1342
Rp1343
sS'/home/ishwarya/Documents/math_modeling/AMR-Data-Embedding/audio_samples/Harvard_Sentences/OSR_us_000_0015_8k.wav:speech_samples/pronunciation_en_seven.mp3:speech_samples/pronunciation_en_nine.mp3'
p1344
g2
(g6
S"vb'vb'\xe6?"
p1345
tp1346
Rp1347
sS'/home/ishwarya/Documents/math_modeling/AMR-Data-Embedding/audio_samples/Harvard_Sentences/OSR_us_000_0039_8k.wav:speech_samples/pronunciation_en_one.mp3:speech_samples/pronunciation_en_five.mp3'
p1348
g2
(g6
S'\x9a\x99\x99\x99\x99\x99\xd9?'
p1349
tp1350
Rp1351
sS'/home/ishwarya/Documents/math_modeling/AMR-Data-Embedding/audio_samples/Harvard_Sentences/OSR_us_000_0060_8k.wav:speech_samples/pronunciation_en_seven.mp3:speech_samples/pronunciation_en_nine.mp3'
p1352
g2
(g6
S'F\x17]t\xd1E\xd7?'
p1353
tp1354
Rp1355
sS'/home/ishwarya/Documents/math_modeling/AMR-Data-Embedding/audio_samples/Harvard_Sentences/OSR_us_000_0059_8k.wav:speech_samples/pronunciation_en_nine.mp3:speech_samples/pronunciation_en_zero2.mp3'
p1356
g2
(g6
S'(\xaf\xa1\xbc\x86\xf2\xda?'
p1357
tp1358
Rp1359
sS'/home/ishwarya/Documents/math_modeling/AMR-Data-Embedding/audio_samples/Harvard_Sentences/OSR_us_000_0013_8k.wav:speech_samples/pronunciation_en_zero2.mp3:speech_samples/pronunciation_en_one.mp3'
p1360
g2
(g6
S'\x00\x00\x00\x00\x00\x00\xe3?'
p1361
tp1362
Rp1363
sS'/home/ishwarya/Documents/math_modeling/AMR-Data-Embedding/audio_samples/Harvard_Sentences/OSR_us_000_0040_8k.wav:speech_samples/pronunciation_en_zero2.mp3:speech_samples/pronunciation_en_nine.mp3'
p1364
g2
(g6
S'\r\xe55\x94\xd7P\xde?'
p1365
tp1366
Rp1367
sS'/home/ishwarya/Documents/math_modeling/AMR-Data-Embedding/audio_samples/Harvard_Sentences/OSR_us_000_0019_8k.wav:speech_samples/pronunciation_en_one.mp3:speech_samples/pronunciation_en_five.mp3'
p1368
g2
(g6
S'\xdd\xc8\x8d\xdc\xc8\x8d\xdc?'
p1369
tp1370
Rp1371
sS'/home/ishwarya/Documents/math_modeling/AMR-Data-Embedding/audio_samples/Harvard_Sentences/OSR_us_000_0034_8k.wav:speech_samples/pronunciation_en_zero2.mp3:speech_samples/pronunciation_en_five.mp3'
p1372
g2
(g6
S';\xb1\x13;\xb1\x13\xe3?'
p1373
tp1374
Rp1375
sS'/home/ishwarya/Documents/math_modeling/AMR-Data-Embedding/audio_samples/Harvard_Sentences/OSR_us_000_0030_8k.wav:speech_samples/pronunciation_en_seven.mp3:speech_samples/pronunciation_en_nine.mp3'
p1376
g2
(g6
S'%I\x92$I\x92\xe4?'
p1377
tp1378
Rp1379
sS'/home/ishwarya/Documents/math_modeling/AMR-Data-Embedding/audio_samples/Harvard_Sentences/OSR_us_000_0039_8k.wav:speech_samples/pronunciation_en_zero2.mp3:speech_samples/pronunciation_en_seven.mp3'
p1380
g2
(g6
S'\xab\xaa\xaa\xaa\xaa\xaa\xe2?'
p1381
tp1382
Rp1383
sS'/home/ishwarya/Documents/math_modeling/AMR-Data-Embedding/audio_samples/Harvard_Sentences/OSR_us_000_0060_8k.wav:speech_samples/pronunciation_en_nine.mp3:speech_samples/pronunciation_en_seven.mp3'
p1384
g2
(g6
S'333333\xe3?'
p1385
tp1386
Rp1387
sS'/home/ishwarya/Documents/math_modeling/AMR-Data-Embedding/audio_samples/Harvard_Sentences/OSR_us_000_0037_8k.wav:speech_samples/pronunciation_en_seven.mp3:speech_samples/pronunciation_en_zero2.mp3'
p1388
g2
(g6
S'ZZZZZZ\xda?'
p1389
tp1390
Rp1391
sS'/home/ishwarya/Documents/math_modeling/AMR-Data-Embedding/audio_samples/Harvard_Sentences/OSR_us_000_0013_8k.wav:speech_samples/pronunciation_en_seven.mp3:speech_samples/pronunciation_en_five.mp3'
p1392
g2
(g6
S'\x00\x00\x00\x00\x00\x00\xe0?'
p1393
tp1394
Rp1395
sS'/home/ishwarya/Documents/math_modeling/AMR-Data-Embedding/audio_samples/Harvard_Sentences/OSR_us_000_0032_8k.wav:speech_samples/pronunciation_en_zero2.mp3:speech_samples/pronunciation_en_nine.mp3'
p1396
g2
(g6
S'9\xb8\xd9/\xc4\x8a\xe2?'
p1397
tp1398
Rp1399
sS'/home/ishwarya/Documents/math_modeling/AMR-Data-Embedding/audio_samples/Harvard_Sentences/OSR_us_000_0031_8k.wav:speech_samples/pronunciation_en_seven.mp3:speech_samples/pronunciation_en_five.mp3'
p1400
g2
(g6
S'UUUUUU\xe5?'
p1401
tp1402
Rp1403
sS'/home/ishwarya/Documents/math_modeling/AMR-Data-Embedding/audio_samples/Harvard_Sentences/OSR_us_000_0014_8k.wav:speech_samples/pronunciation_en_five.mp3:speech_samples/pronunciation_en_nine.mp3'
p1404
g2
(g6
S'\xdb\xb6m\xdb\xb6m\xdb?'
p1405
tp1406
Rp1407
sS'/home/ishwarya/Documents/math_modeling/AMR-Data-Embedding/audio_samples/Harvard_Sentences/OSR_us_000_0032_8k.wav:speech_samples/pronunciation_en_five.mp3:speech_samples/pronunciation_en_seven.mp3'
p1408
g2
(g6
S'UUUUUU\xe5?'
p1409
tp1410
Rp1411
sS'/home/ishwarya/Documents/math_modeling/AMR-Data-Embedding/audio_samples/Harvard_Sentences/OSR_us_000_0057_8k.wav:speech_samples/pronunciation_en_zero2.mp3:speech_samples/pronunciation_en_five.mp3'
p1412
g2
(g6
S'\xa9\t\xc6[\xd9\xe7\xe0?'
p1413
tp1414
Rp1415
sS'/home/ishwarya/Documents/math_modeling/AMR-Data-Embedding/audio_samples/Harvard_Sentences/OSR_us_000_0019_8k.wav:speech_samples/pronunciation_en_nine.mp3:speech_samples/pronunciation_en_seven.mp3'
p1416
g2
(g6
S'\x00\x00\x00\x00\x00\x00\xe0?'
p1417
tp1418
Rp1419
sS'/home/ishwarya/Documents/math_modeling/AMR-Data-Embedding/audio_samples/Harvard_Sentences/OSR_us_000_0010_8k.wav:speech_samples/pronunciation_en_zero2.mp3:speech_samples/pronunciation_en_seven.mp3'
p1420
g2
(g6
S'\x06}A_\xd0\x17\xe4?'
p1421
tp1422
Rp1423
sS'/home/ishwarya/Documents/math_modeling/AMR-Data-Embedding/audio_samples/Harvard_Sentences/OSR_us_000_0018_8k.wav:speech_samples/pronunciation_en_zero2.mp3:speech_samples/pronunciation_en_seven.mp3'
p1424
g2
(g6
S'}h\xac\x0f\x8d\xf5\xe1?'
p1425
tp1426
Rp1427
sS'/home/ishwarya/Documents/math_modeling/AMR-Data-Embedding/audio_samples/Harvard_Sentences/OSR_us_000_0040_8k.wav:speech_samples/pronunciation_en_zero2.mp3:speech_samples/pronunciation_en_one.mp3'
p1428
g2
(g6
S'\xe48\x8e\xe38\x8e\xe3?'
p1429
tp1430
Rp1431
sS'/home/ishwarya/Documents/math_modeling/AMR-Data-Embedding/audio_samples/Harvard_Sentences/OSR_us_000_0018_8k.wav:speech_samples/pronunciation_en_zero2.mp3:speech_samples/pronunciation_en_five.mp3'
p1432
g2
(g6
S'O#,\xf74\xc2\xe2?'
p1433
tp1434
Rp1435
sS'/home/ishwarya/Documents/math_modeling/AMR-Data-Embedding/audio_samples/Harvard_Sentences/OSR_us_000_0059_8k.wav:speech_samples/pronunciation_en_nine.mp3:speech_samples/pronunciation_en_one.mp3'
p1436
g2
(g6
S'\xab\xaa\xaa\xaa\xaa\xaa\xda?'
p1437
tp1438
Rp1439
sS'/home/ishwarya/Documents/math_modeling/AMR-Data-Embedding/audio_samples/Harvard_Sentences/OSR_us_000_0038_8k.wav:speech_samples/pronunciation_en_nine.mp3:speech_samples/pronunciation_en_one.mp3'
p1440
g2
(g6
S'333333\xe3?'
p1441
tp1442
Rp1443
sS'/home/ishwarya/Documents/math_modeling/AMR-Data-Embedding/audio_samples/Harvard_Sentences/OSR_us_000_0030_8k.wav:speech_samples/pronunciation_en_five.mp3:speech_samples/pronunciation_en_nine.mp3'
p1444
g2
(g6
S'\x00\x00\x00\x00\x00\x00\xe0?'
p1445
tp1446
Rp1447
sS'/home/ishwarya/Documents/math_modeling/AMR-Data-Embedding/audio_samples/Harvard_Sentences/OSR_us_000_0015_8k.wav:speech_samples/pronunciation_en_one.mp3:speech_samples/pronunciation_en_five.mp3'
p1448
g2
(g6
S'X|\xc5W|\xc5\xd7?'
p1449
tp1450
Rp1451
sS'/home/ishwarya/Documents/math_modeling/AMR-Data-Embedding/audio_samples/Harvard_Sentences/OSR_us_000_0038_8k.wav:speech_samples/pronunciation_en_zero2.mp3:speech_samples/pronunciation_en_seven.mp3'
p1452
g2
(g6
S'\xee\x88;\xe2\x8e\xb8\xe3?'
p1453
tp1454
Rp1455
sS'/home/ishwarya/Documents/math_modeling/AMR-Data-Embedding/audio_samples/Harvard_Sentences/OSR_us_000_0057_8k.wav:speech_samples/pronunciation_en_nine.mp3:speech_samples/pronunciation_en_one.mp3'
p1456
g2
(g6
S'~\x0e\xa9\t\xc6[\xd9?'
p1457
tp1458
Rp1459
sS'/home/ishwarya/Documents/math_modeling/AMR-Data-Embedding/audio_samples/Harvard_Sentences/OSR_us_000_0015_8k.wav:speech_samples/pronunciation_en_five.mp3:speech_samples/pronunciation_en_seven.mp3'
p1460
g2
(g6
S'\xf1\xf0\xf0\xf0\xf0\xf0\xe0?'
p1461
tp1462
Rp1463
sS'/home/ishwarya/Documents/math_modeling/AMR-Data-Embedding/audio_samples/Harvard_Sentences/OSR_us_000_0039_8k.wav:speech_samples/pronunciation_en_nine.mp3:speech_samples/pronunciation_en_seven.mp3'
p1464
g2
(g6
S'\xb1\x13;\xb1\x13;\xe1?'
p1465
tp1466
Rp1467
sS'/home/ishwarya/Documents/math_modeling/AMR-Data-Embedding/audio_samples/Harvard_Sentences/OSR_us_000_0060_8k.wav:speech_samples/pronunciation_en_one.mp3:speech_samples/pronunciation_en_zero2.mp3'
p1468
g2
(g6
S'r\x051\xb9\x82\x98\xdc?'
p1469
tp1470
Rp1471
sS'/home/ishwarya/Documents/math_modeling/AMR-Data-Embedding/audio_samples/Harvard_Sentences/OSR_us_000_0060_8k.wav:speech_samples/pronunciation_en_nine.mp3:speech_samples/pronunciation_en_five.mp3'
p1472
g2
(g6
S'UUUUUU\xd5?'
p1473
tp1474
Rp1475
sS'/home/ishwarya/Documents/math_modeling/AMR-Data-Embedding/audio_samples/Harvard_Sentences/OSR_us_000_0010_8k.wav:speech_samples/pronunciation_en_one.mp3:speech_samples/pronunciation_en_zero2.mp3'
p1476
g2
(g6
S' *\x1d\xd93\x10\xd5?'
p1477
tp1478
Rp1479
sS'/home/ishwarya/Documents/math_modeling/AMR-Data-Embedding/audio_samples/Harvard_Sentences/OSR_us_000_0014_8k.wav:speech_samples/pronunciation_en_nine.mp3:speech_samples/pronunciation_en_five.mp3'
p1480
g2
(g6
S'\x00\x00\x00\x00\x00\x00\xe0?'
p1481
tp1482
Rp1483
sS'/home/ishwarya/Documents/math_modeling/AMR-Data-Embedding/audio_samples/Harvard_Sentences/OSR_us_000_0060_8k.wav:speech_samples/pronunciation_en_zero2.mp3:speech_samples/pronunciation_en_one.mp3'
p1484
g2
(g6
S">'\xd3W\tc\xe3?"
p1485
tp1486
Rp1487
sS'/home/ishwarya/Documents/math_modeling/AMR-Data-Embedding/audio_samples/Harvard_Sentences/OSR_us_000_0019_8k.wav:speech_samples/pronunciation_en_nine.mp3:speech_samples/pronunciation_en_one.mp3'
p1488
g2
(g6
S'\xbd\xe9Moz\xd3\xdb?'
p1489
tp1490
Rp1491
sS'/home/ishwarya/Documents/math_modeling/AMR-Data-Embedding/audio_samples/Harvard_Sentences/OSR_us_000_0057_8k.wav:speech_samples/pronunciation_en_five.mp3:speech_samples/pronunciation_en_seven.mp3'
p1492
g2
(g6
S'/\xba\xe8\xa2\x8b.\xea?'
p1493
tp1494
Rp1495
sS'/home/ishwarya/Documents/math_modeling/AMR-Data-Embedding/audio_samples/Harvard_Sentences/OSR_us_000_0035_8k.wav:speech_samples/pronunciation_en_seven.mp3:speech_samples/pronunciation_en_zero2.mp3'
p1496
g2
(g6
S'\x92$I\x92$I\xda?'
p1497
tp1498
Rp1499
sS'/home/ishwarya/Documents/math_modeling/AMR-Data-Embedding/audio_samples/Harvard_Sentences/OSR_us_000_0040_8k.wav:speech_samples/pronunciation_en_seven.mp3:speech_samples/pronunciation_en_nine.mp3'
p1500
g2
(g6
S"vb'vb'\xe6?"
p1501
tp1502
Rp1503
sS'/home/ishwarya/Documents/math_modeling/AMR-Data-Embedding/audio_samples/Harvard_Sentences/OSR_us_000_0036_8k.wav:speech_samples/pronunciation_en_one.mp3:speech_samples/pronunciation_en_nine.mp3'
p1504
g2
(g6
S'\x1c\xc7q\x1c\xc7q\xdc?'
p1505
tp1506
Rp1507
sS'/home/ishwarya/Documents/math_modeling/AMR-Data-Embedding/audio_samples/Harvard_Sentences/OSR_us_000_0034_8k.wav:speech_samples/pronunciation_en_nine.mp3:speech_samples/pronunciation_en_seven.mp3'
p1508
g2
(g6
S't\xd1E\x17]t\xe1?'
p1509
tp1510
Rp1511
sS'/home/ishwarya/Documents/math_modeling/AMR-Data-Embedding/audio_samples/Harvard_Sentences/OSR_us_000_0037_8k.wav:speech_samples/pronunciation_en_seven.mp3:speech_samples/pronunciation_en_nine.mp3'
p1512
g2
(g6
S'\x00\x00\x00\x00\x00\x00\xe4?'
p1513
tp1514
Rp1515
sS'/home/ishwarya/Documents/math_modeling/AMR-Data-Embedding/audio_samples/Harvard_Sentences/OSR_us_000_0060_8k.wav:speech_samples/pronunciation_en_five.mp3:speech_samples/pronunciation_en_nine.mp3'
p1516
g2
(g6
S'\xdb\xb6m\xdb\xb6m\xdb?'
p1517
tp1518
Rp1519
sS'/home/ishwarya/Documents/math_modeling/AMR-Data-Embedding/audio_samples/Harvard_Sentences/OSR_us_000_0059_8k.wav:speech_samples/pronunciation_en_one.mp3:speech_samples/pronunciation_en_seven.mp3'
p1520
g2
(g6
S'\x00\x00\x00\x00\x00\x00\xe0?'
p1521
tp1522
Rp1523
sS'/home/ishwarya/Documents/math_modeling/AMR-Data-Embedding/audio_samples/Harvard_Sentences/OSR_us_000_0030_8k.wav:speech_samples/pronunciation_en_nine.mp3:speech_samples/pronunciation_en_seven.mp3'
p1524
g2
(g6
S'\x14;\xb1\x13;\xb1\xc3?'
p1525
tp1526
Rp1527
sS'/home/ishwarya/Documents/math_modeling/AMR-Data-Embedding/audio_samples/Harvard_Sentences/OSR_us_000_0031_8k.wav:speech_samples/pronunciation_en_nine.mp3:speech_samples/pronunciation_en_seven.mp3'
p1528
g2
(g6
S'\x17]t\xd1E\x17\xdd?'
p1529
tp1530
Rp1531
sS'/home/ishwarya/Documents/math_modeling/AMR-Data-Embedding/audio_samples/Harvard_Sentences/OSR_us_000_0013_8k.wav:speech_samples/pronunciation_en_seven.mp3:speech_samples/pronunciation_en_one.mp3'
p1532
g2
(g6
S'g\xa3\xbe\xb3Q\xdf\xd9?'
p1533
tp1534
Rp1535
sS'/home/ishwarya/Documents/math_modeling/AMR-Data-Embedding/audio_samples/Harvard_Sentences/OSR_us_000_0061_8k.wav:speech_samples/pronunciation_en_one.mp3:speech_samples/pronunciation_en_five.mp3'
p1536
g2
(g6
S'\x92$I\x92$I\xe2?'
p1537
tp1538
Rp1539
sS'/home/ishwarya/Documents/math_modeling/AMR-Data-Embedding/audio_samples/Harvard_Sentences/OSR_us_000_0030_8k.wav:speech_samples/pronunciation_en_one.mp3:speech_samples/pronunciation_en_nine.mp3'
p1540
g2
(g6
S'8\xbd\xe9Moz\xe3?'
p1541
tp1542
Rp1543
sS'/home/ishwarya/Documents/math_modeling/AMR-Data-Embedding/audio_samples/Harvard_Sentences/OSR_us_000_0061_8k.wav:speech_samples/pronunciation_en_zero2.mp3:speech_samples/pronunciation_en_five.mp3'
p1544
g2
(g6
S'\xecQ\xb8\x1e\x85\xeb\xe1?'
p1545
tp1546
Rp1547
sS'/home/ishwarya/Documents/math_modeling/AMR-Data-Embedding/audio_samples/Harvard_Sentences/OSR_us_000_0017_8k.wav:speech_samples/pronunciation_en_nine.mp3:speech_samples/pronunciation_en_zero2.mp3'
p1548
g2
(g6
S'1\x9d\xc5t\x16\xd3\xd9?'
p1549
tp1550
Rp1551
sS'/home/ishwarya/Documents/math_modeling/AMR-Data-Embedding/audio_samples/Harvard_Sentences/OSR_us_000_0010_8k.wav:speech_samples/pronunciation_en_five.mp3:speech_samples/pronunciation_en_nine.mp3'
p1552
g2
(g6
S'9\x8e\xe38\x8e\xe3\xe8?'
p1553
tp1554
Rp1555
sS'/home/ishwarya/Documents/math_modeling/AMR-Data-Embedding/audio_samples/Harvard_Sentences/OSR_us_000_0038_8k.wav:speech_samples/pronunciation_en_seven.mp3:speech_samples/pronunciation_en_one.mp3'
p1556
g2
(g6
S'\x17]t\xd1E\x17\xdd?'
p1557
tp1558
Rp1559
sS'/home/ishwarya/Documents/math_modeling/AMR-Data-Embedding/audio_samples/Harvard_Sentences/OSR_us_000_0035_8k.wav:speech_samples/pronunciation_en_five.mp3:speech_samples/pronunciation_en_one.mp3'
p1560
g2
(g6
S'\x00\x00\x00\x00\x00\x00\xe0?'
p1561
tp1562
Rp1563
sS'/home/ishwarya/Documents/math_modeling/AMR-Data-Embedding/audio_samples/Harvard_Sentences/OSR_us_000_0057_8k.wav:speech_samples/pronunciation_en_one.mp3:speech_samples/pronunciation_en_five.mp3'
p1564
g2
(g6
S'\x00\x00\x00\x00\x00\x00\xe0?'
p1565
tp1566
Rp1567
sS'/home/ishwarya/Documents/math_modeling/AMR-Data-Embedding/audio_samples/Harvard_Sentences/OSR_us_000_0011_8k.wav:speech_samples/pronunciation_en_zero2.mp3:speech_samples/pronunciation_en_seven.mp3'
p1568
g2
(g6
S'\xd6\x945eMY\xe3?'
p1569
tp1570
Rp1571
sS'/home/ishwarya/Documents/math_modeling/AMR-Data-Embedding/audio_samples/Harvard_Sentences/OSR_us_000_0061_8k.wav:speech_samples/pronunciation_en_nine.mp3:speech_samples/pronunciation_en_seven.mp3'
p1572
g2
(g6
S't\xd1E\x17]t\xd1?'
p1573
tp1574
Rp1575
sS'/home/ishwarya/Documents/math_modeling/AMR-Data-Embedding/audio_samples/Harvard_Sentences/OSR_us_000_0061_8k.wav:speech_samples/pronunciation_en_zero2.mp3:speech_samples/pronunciation_en_nine.mp3'
p1576
g2
(g6
S'\xf418\x1f\x83\xf3\xe1?'
p1577
tp1578
Rp1579
sS'/home/ishwarya/Documents/math_modeling/AMR-Data-Embedding/audio_samples/Harvard_Sentences/OSR_us_000_0036_8k.wav:speech_samples/pronunciation_en_one.mp3:speech_samples/pronunciation_en_seven.mp3'
p1580
g2
(g6
S'\x00\x00\x00\x00\x00\x00\xe0?'
p1581
tp1582
Rp1583
sS'/home/ishwarya/Documents/math_modeling/AMR-Data-Embedding/audio_samples/Harvard_Sentences/OSR_us_000_0035_8k.wav:speech_samples/pronunciation_en_nine.mp3:speech_samples/pronunciation_en_zero2.mp3'
p1584
g2
(g6
S'1\x9d\xc5t\x16\xd3\xd9?'
p1585
tp1586
Rp1587
sS'/home/ishwarya/Documents/math_modeling/AMR-Data-Embedding/audio_samples/Harvard_Sentences/OSR_us_000_0059_8k.wav:speech_samples/pronunciation_en_five.mp3:speech_samples/pronunciation_en_nine.mp3'
p1588
g2
(g6
S'\x14;\xb1\x13;\xb1\xd3?'
p1589
tp1590
Rp1591
sS'/home/ishwarya/Documents/math_modeling/AMR-Data-Embedding/audio_samples/Harvard_Sentences/OSR_us_000_0016_8k.wav:speech_samples/pronunciation_en_nine.mp3:speech_samples/pronunciation_en_zero2.mp3'
p1592
g2
(g6
S'\x92$I\x92$I\xda?'
p1593
tp1594
Rp1595
sS'/home/ishwarya/Documents/math_modeling/AMR-Data-Embedding/audio_samples/Harvard_Sentences/OSR_us_000_0016_8k.wav:speech_samples/pronunciation_en_zero2.mp3:speech_samples/pronunciation_en_one.mp3'
p1596
g2
(g6
S'\x82 \x08\x82 \x08\xe2?'
p1597
tp1598
Rp1599
sS'/home/ishwarya/Documents/math_modeling/AMR-Data-Embedding/audio_samples/Harvard_Sentences/OSR_us_000_0037_8k.wav:speech_samples/pronunciation_en_one.mp3:speech_samples/pronunciation_en_nine.mp3'
p1600
g2
(g6
S'\xd9\x89\x9d\xd8\x89\x9d\xd8?'
p1601
tp1602
Rp1603
sS'/home/ishwarya/Documents/math_modeling/AMR-Data-Embedding/audio_samples/Harvard_Sentences/OSR_us_000_0011_8k.wav:speech_samples/pronunciation_en_nine.mp3:speech_samples/pronunciation_en_zero2.mp3'
p1604
g2
(g6
S'\x1c\xb9\x91\x1b\xb9\x91\xdb?'
p1605
tp1606
Rp1607
sS'/home/ishwarya/Documents/math_modeling/AMR-Data-Embedding/audio_samples/Harvard_Sentences/OSR_us_000_0019_8k.wav:speech_samples/pronunciation_en_zero2.mp3:speech_samples/pronunciation_en_seven.mp3'
p1608
g2
(g6
S'\xf1FS\xe7\xd7\x1e\xe2?'
p1609
tp1610
Rp1611
sS'/home/ishwarya/Documents/math_modeling/AMR-Data-Embedding/audio_samples/Harvard_Sentences/OSR_us_000_0032_8k.wav:speech_samples/pronunciation_en_one.mp3:speech_samples/pronunciation_en_zero2.mp3'
p1612
g2
(g6
S'\x8c.\xba\xe8\xa2\x8b\xde?'
p1613
tp1614
Rp1615
sS'/home/ishwarya/Documents/math_modeling/AMR-Data-Embedding/audio_samples/Harvard_Sentences/OSR_us_000_0035_8k.wav:speech_samples/pronunciation_en_five.mp3:speech_samples/pronunciation_en_zero2.mp3'
p1616
g2
(g6
S'\x00\x00\x00\x00\x00\x00\xda?'
p1617
tp1618
Rp1619
sS'/home/ishwarya/Documents/math_modeling/AMR-Data-Embedding/audio_samples/Harvard_Sentences/OSR_us_000_0034_8k.wav:speech_samples/pronunciation_en_five.mp3:speech_samples/pronunciation_en_one.mp3'
p1620
g2
(g6
S'333333\xe3?'
p1621
tp1622
Rp1623
sS'/home/ishwarya/Documents/math_modeling/AMR-Data-Embedding/audio_samples/Harvard_Sentences/OSR_us_000_0057_8k.wav:speech_samples/pronunciation_en_one.mp3:speech_samples/pronunciation_en_nine.mp3'
p1624
g2
(g6
S'\x00\x00\x00\x00\x00\x00\xe8?'
p1625
tp1626
Rp1627
sS'/home/ishwarya/Documents/math_modeling/AMR-Data-Embedding/audio_samples/Harvard_Sentences/OSR_us_000_0030_8k.wav:speech_samples/pronunciation_en_five.mp3:speech_samples/pronunciation_en_seven.mp3'
p1628
g2
(g6
S'\xab\xaa\xaa\xaa\xaa\xaa\xe2?'
p1629
tp1630
Rp1631
sS'/home/ishwarya/Documents/math_modeling/AMR-Data-Embedding/audio_samples/Harvard_Sentences/OSR_us_000_0032_8k.wav:speech_samples/pronunciation_en_seven.mp3:speech_samples/pronunciation_en_nine.mp3'
p1632
g2
(g6
S'333333\xe3?'
p1633
tp1634
Rp1635
sS'/home/ishwarya/Documents/math_modeling/AMR-Data-Embedding/audio_samples/Harvard_Sentences/OSR_us_000_0017_8k.wav:speech_samples/pronunciation_en_five.mp3:speech_samples/pronunciation_en_one.mp3'
p1636
g2
(g6
S'\x1c\xc7q\x1c\xc7q\xdc?'
p1637
tp1638
Rp1639
sS'/home/ishwarya/Documents/math_modeling/AMR-Data-Embedding/audio_samples/Harvard_Sentences/OSR_us_000_0059_8k.wav:speech_samples/pronunciation_en_zero2.mp3:speech_samples/pronunciation_en_seven.mp3'
p1640
g2
(g6
S'\tc\xb3\xa0\xdas\xe2?'
p1641
tp1642
Rp1643
sS'/home/ishwarya/Documents/math_modeling/AMR-Data-Embedding/audio_samples/Harvard_Sentences/OSR_us_000_0040_8k.wav:speech_samples/pronunciation_en_seven.mp3:speech_samples/pronunciation_en_one.mp3'
p1644
g2
(g6
S'\x1e\x1e\x1e\x1e\x1e\x1e\xde?'
p1645
tp1646
Rp1647
sS'/home/ishwarya/Documents/math_modeling/AMR-Data-Embedding/audio_samples/Harvard_Sentences/OSR_us_000_0035_8k.wav:speech_samples/pronunciation_en_seven.mp3:speech_samples/pronunciation_en_five.mp3'
p1648
g2
(g6
S'\x00\x00\x00\x00\x00\x00\xe0?'
p1649
tp1650
Rp1651
sS'/home/ishwarya/Documents/math_modeling/AMR-Data-Embedding/audio_samples/Harvard_Sentences/OSR_us_000_0039_8k.wav:speech_samples/pronunciation_en_nine.mp3:speech_samples/pronunciation_en_five.mp3'
p1652
g2
(g6
S'UUUUUU\xe5?'
p1653
tp1654
Rp1655
sS'/home/ishwarya/Documents/math_modeling/AMR-Data-Embedding/audio_samples/Harvard_Sentences/OSR_us_000_0031_8k.wav:speech_samples/pronunciation_en_seven.mp3:speech_samples/pronunciation_en_one.mp3'
p1656
g2
(g6
S'\x00\x00\x00\x00\x00\x00\xe0?'
p1657
tp1658
Rp1659
sS'/home/ishwarya/Documents/math_modeling/AMR-Data-Embedding/audio_samples/Harvard_Sentences/OSR_us_000_0057_8k.wav:speech_samples/pronunciation_en_nine.mp3:speech_samples/pronunciation_en_seven.mp3'
p1660
g2
(g6
S'UUUUUU\xe5?'
p1661
tp1662
Rp1663
sS'/home/ishwarya/Documents/math_modeling/AMR-Data-Embedding/audio_samples/Harvard_Sentences/OSR_us_000_0031_8k.wav:speech_samples/pronunciation_en_zero2.mp3:speech_samples/pronunciation_en_five.mp3'
p1664
g2
(g6
S'\xcd\xcc\xcc\xcc\xcc\xcc\xe4?'
p1665
tp1666
Rp1667
sS'/home/ishwarya/Documents/math_modeling/AMR-Data-Embedding/audio_samples/Harvard_Sentences/OSR_us_000_0034_8k.wav:speech_samples/pronunciation_en_five.mp3:speech_samples/pronunciation_en_nine.mp3'
p1668
g2
(g6
S'\x92$I\x92$I\xd2?'
p1669
tp1670
Rp1671
sS'/home/ishwarya/Documents/math_modeling/AMR-Data-Embedding/audio_samples/Harvard_Sentences/OSR_us_000_0035_8k.wav:speech_samples/pronunciation_en_zero2.mp3:speech_samples/pronunciation_en_five.mp3'
p1672
g2
(g6
S"b'vb'v\xe2?"
p1673
tp1674
Rp1675
sS'/home/ishwarya/Documents/math_modeling/AMR-Data-Embedding/audio_samples/Harvard_Sentences/OSR_us_000_0040_8k.wav:speech_samples/pronunciation_en_five.mp3:speech_samples/pronunciation_en_seven.mp3'
p1676
g2
(g6
S'ZZZZZZ\xea?'
p1677
tp1678
Rp1679
sS'/home/ishwarya/Documents/math_modeling/AMR-Data-Embedding/audio_samples/Harvard_Sentences/OSR_us_000_0019_8k.wav:speech_samples/pronunciation_en_five.mp3:speech_samples/pronunciation_en_zero2.mp3'
p1680
g2
(g6
S't\xd1E\x17]t\xe1?'
p1681
tp1682
Rp1683
sS'/home/ishwarya/Documents/math_modeling/AMR-Data-Embedding/audio_samples/Harvard_Sentences/OSR_us_000_0011_8k.wav:speech_samples/pronunciation_en_one.mp3:speech_samples/pronunciation_en_nine.mp3'
p1684
g2
(g6
S'W\xa2v%jW\xe2?'
p1685
tp1686
Rp1687
sS'/home/ishwarya/Documents/math_modeling/AMR-Data-Embedding/audio_samples/Harvard_Sentences/OSR_us_000_0016_8k.wav:speech_samples/pronunciation_en_one.mp3:speech_samples/pronunciation_en_zero2.mp3'
p1688
g2
(g6
S'\xdf\xf7}\xdf\xf7}\xdf?'
p1689
tp1690
Rp1691
sS'/home/ishwarya/Documents/math_modeling/AMR-Data-Embedding/audio_samples/Harvard_Sentences/OSR_us_000_0037_8k.wav:speech_samples/pronunciation_en_nine.mp3:speech_samples/pronunciation_en_one.mp3'
p1692
g2
(g6
S'\xd9\x89\x9d\xd8\x89\x9d\xd8?'
p1693
tp1694
Rp1695
sS'/home/ishwarya/Documents/math_modeling/AMR-Data-Embedding/audio_samples/Harvard_Sentences/OSR_us_000_0019_8k.wav:speech_samples/pronunciation_en_zero2.mp3:speech_samples/pronunciation_en_five.mp3'
p1696
g2
(g6
S'\x0b\x9b\x03\x89V\xd8\xdc?'
p1697
tp1698
Rp1699
sS'/home/ishwarya/Documents/math_modeling/AMR-Data-Embedding/audio_samples/Harvard_Sentences/OSR_us_000_0011_8k.wav:speech_samples/pronunciation_en_five.mp3:speech_samples/pronunciation_en_nine.mp3'
p1700
g2
(g6
S'\x1c\xc7q\x1c\xc7q\xdc?'
p1701
tp1702
Rp1703
sS'/home/ishwarya/Documents/math_modeling/AMR-Data-Embedding/audio_samples/Harvard_Sentences/OSR_us_000_0060_8k.wav:speech_samples/pronunciation_en_five.mp3:speech_samples/pronunciation_en_zero2.mp3'
p1704
g2
(g6
S'9\x8e\xe38\x8e\xe3\xd8?'
p1705
tp1706
Rp1707
sS'/home/ishwarya/Documents/math_modeling/AMR-Data-Embedding/audio_samples/Harvard_Sentences/OSR_us_000_0016_8k.wav:speech_samples/pronunciation_en_zero2.mp3:speech_samples/pronunciation_en_five.mp3'
p1708
g2
(g6
S'\x00\x00\x00\x00\x00\x00\xe4?'
p1709
tp1710
Rp1711
sS'/home/ishwarya/Documents/math_modeling/AMR-Data-Embedding/audio_samples/Harvard_Sentences/OSR_us_000_0018_8k.wav:speech_samples/pronunciation_en_zero2.mp3:speech_samples/pronunciation_en_nine.mp3'
p1712
g2
(g6
S'v\xe87[\x87~\xe3?'
p1713
tp1714
Rp1715
sS'/home/ishwarya/Documents/math_modeling/AMR-Data-Embedding/audio_samples/Harvard_Sentences/OSR_us_000_0015_8k.wav:speech_samples/pronunciation_en_nine.mp3:speech_samples/pronunciation_en_one.mp3'
p1716
g2
(g6
S'\x9a\x99\x99\x99\x99\x99\xd9?'
p1717
tp1718
Rp1719
sS'/home/ishwarya/Documents/math_modeling/AMR-Data-Embedding/audio_samples/Harvard_Sentences/OSR_us_000_0059_8k.wav:speech_samples/pronunciation_en_one.mp3:speech_samples/pronunciation_en_nine.mp3'
p1720
g2
(g6
S"b'vb'v\xe2?"
p1721
tp1722
Rp1723
sS'/home/ishwarya/Documents/math_modeling/AMR-Data-Embedding/audio_samples/Harvard_Sentences/OSR_us_000_0010_8k.wav:speech_samples/pronunciation_en_nine.mp3:speech_samples/pronunciation_en_zero2.mp3'
p1724
g2
(g6
S'\x8a\x9d\xd8\x89\x9d\xd8\xd9?'
p1725
tp1726
Rp1727
sS'/home/ishwarya/Documents/math_modeling/AMR-Data-Embedding/audio_samples/Harvard_Sentences/OSR_us_000_0017_8k.wav:speech_samples/pronunciation_en_nine.mp3:speech_samples/pronunciation_en_one.mp3'
p1728
g2
(g6
S'\xf2V\xf69\xa4&\xd8?'
p1729
tp1730
Rp1731
sS'/home/ishwarya/Documents/math_modeling/AMR-Data-Embedding/audio_samples/Harvard_Sentences/OSR_us_000_0061_8k.wav:speech_samples/pronunciation_en_seven.mp3:speech_samples/pronunciation_en_zero2.mp3'
p1732
g2
(g6
S'\xaeC\xbf\xd9:\xf4\xdb?'
p1733
tp1734
Rp1735
sS'/home/ishwarya/Documents/math_modeling/AMR-Data-Embedding/audio_samples/Harvard_Sentences/OSR_us_000_0011_8k.wav:speech_samples/pronunciation_en_zero2.mp3:speech_samples/pronunciation_en_nine.mp3'
p1736
g2
(g6
S'\x8f\xc2\xf5(\\\x8f\xe2?'
p1737
tp1738
Rp1739
sS'/home/ishwarya/Documents/math_modeling/AMR-Data-Embedding/audio_samples/Harvard_Sentences/OSR_us_000_0017_8k.wav:speech_samples/pronunciation_en_one.mp3:speech_samples/pronunciation_en_seven.mp3'
p1740
g2
(g6
S'h/\xa1\xbd\x84\xf6\xe2?'
p1741
tp1742
Rp1743
sS'/home/ishwarya/Documents/math_modeling/AMR-Data-Embedding/audio_samples/Harvard_Sentences/OSR_us_000_0040_8k.wav:speech_samples/pronunciation_en_nine.mp3:speech_samples/pronunciation_en_one.mp3'
p1744
g2
(g6
S'\x00\x00\x00\x00\x00\x00\xe0?'
p1745
tp1746
Rp1747
sS'/home/ishwarya/Documents/math_modeling/AMR-Data-Embedding/audio_samples/Harvard_Sentences/OSR_us_000_0034_8k.wav:speech_samples/pronunciation_en_zero2.mp3:speech_samples/pronunciation_en_nine.mp3'
p1748
g2
(g6
S'D\xa5#{\x06\xa2\xe2?'
p1749
tp1750
Rp1751
sS'/home/ishwarya/Documents/math_modeling/AMR-Data-Embedding/audio_samples/Harvard_Sentences/OSR_us_000_0040_8k.wav:speech_samples/pronunciation_en_five.mp3:speech_samples/pronunciation_en_nine.mp3'
p1752
g2
(g6
S']t\xd1E\x17]\xe4?'
p1753
tp1754
Rp1755
sS'/home/ishwarya/Documents/math_modeling/AMR-Data-Embedding/audio_samples/Harvard_Sentences/OSR_us_000_0040_8k.wav:speech_samples/pronunciation_en_nine.mp3:speech_samples/pronunciation_en_zero2.mp3'
p1756
g2
(g6
S'\x00\x00\x00\x00\x00\x00\xda?'
p1757
tp1758
Rp1759
sS'/home/ishwarya/Documents/math_modeling/AMR-Data-Embedding/audio_samples/Harvard_Sentences/OSR_us_000_0060_8k.wav:speech_samples/pronunciation_en_seven.mp3:speech_samples/pronunciation_en_one.mp3'
p1760
g2
(g6
S'\x92$I\x92$I\xe2?'
p1761
tp1762
Rp1763
sS'/home/ishwarya/Documents/math_modeling/AMR-Data-Embedding/audio_samples/Harvard_Sentences/OSR_us_000_0015_8k.wav:speech_samples/pronunciation_en_one.mp3:speech_samples/pronunciation_en_nine.mp3'
p1764
g2
(g6
S'\x95RJ)\xa5\x94\xe2?'
p1765
tp1766
Rp1767
sS'/home/ishwarya/Documents/math_modeling/AMR-Data-Embedding/audio_samples/Harvard_Sentences/OSR_us_000_0011_8k.wav:speech_samples/pronunciation_en_one.mp3:speech_samples/pronunciation_en_five.mp3'
p1768
g2
(g6
S'\x92$I\x92$I\xe2?'
p1769
tp1770
Rp1771
sS'/home/ishwarya/Documents/math_modeling/AMR-Data-Embedding/audio_samples/Harvard_Sentences/OSR_us_000_0030_8k.wav:speech_samples/pronunciation_en_zero2.mp3:speech_samples/pronunciation_en_one.mp3'
p1772
g2
(g6
S'(\xaf\xa1\xbc\x86\xf2\xda?'
p1773
tp1774
Rp1775
sS'/home/ishwarya/Documents/math_modeling/AMR-Data-Embedding/audio_samples/Harvard_Sentences/OSR_us_000_0017_8k.wav:speech_samples/pronunciation_en_seven.mp3:speech_samples/pronunciation_en_zero2.mp3'
p1776
g2
(g6
S'\x00\x00\x00\x00\x00\x00\xd9?'
p1777
tp1778
Rp1779
sS'/home/ishwarya/Documents/math_modeling/AMR-Data-Embedding/audio_samples/Harvard_Sentences/OSR_us_000_0040_8k.wav:speech_samples/pronunciation_en_five.mp3:speech_samples/pronunciation_en_one.mp3'
p1780
g2
(g6
S'UUUUUU\xe5?'
p1781
tp1782
Rp1783
sS'/home/ishwarya/Documents/math_modeling/AMR-Data-Embedding/audio_samples/Harvard_Sentences/OSR_us_000_0010_8k.wav:speech_samples/pronunciation_en_nine.mp3:speech_samples/pronunciation_en_seven.mp3'
p1784
g2
(g6
S'\x00\x00\x00\x00\x00\x00\xe0?'
p1785
tp1786
Rp1787
sS'/home/ishwarya/Documents/math_modeling/AMR-Data-Embedding/audio_samples/Harvard_Sentences/OSR_us_000_0037_8k.wav:speech_samples/pronunciation_en_five.mp3:speech_samples/pronunciation_en_seven.mp3'
p1788
g2
(g6
S'r\x1c\xc7q\x1c\xc7\xe1?'
p1789
tp1790
Rp1791
sS'/home/ishwarya/Documents/math_modeling/AMR-Data-Embedding/audio_samples/Harvard_Sentences/OSR_us_000_0035_8k.wav:speech_samples/pronunciation_en_one.mp3:speech_samples/pronunciation_en_nine.mp3'
p1792
g2
(g6
S'\x00\x00\x00\x00\x00\x00\xf0?'
p1793
tp1794
Rp1795
sS'/home/ishwarya/Documents/math_modeling/AMR-Data-Embedding/audio_samples/Harvard_Sentences/OSR_us_000_0036_8k.wav:speech_samples/pronunciation_en_five.mp3:speech_samples/pronunciation_en_zero2.mp3'
p1796
g2
(g6
S'X|\xc5W|\xc5\xd7?'
p1797
tp1798
Rp1799
sS'/home/ishwarya/Documents/math_modeling/AMR-Data-Embedding/audio_samples/Harvard_Sentences/OSR_us_000_0032_8k.wav:speech_samples/pronunciation_en_one.mp3:speech_samples/pronunciation_en_five.mp3'
p1800
g2
(g6
S'\x92$I\x92$I\xd2?'
p1801
tp1802
Rp1803
sS'/home/ishwarya/Documents/math_modeling/AMR-Data-Embedding/audio_samples/Harvard_Sentences/OSR_us_000_0019_8k.wav:speech_samples/pronunciation_en_one.mp3:speech_samples/pronunciation_en_seven.mp3'
p1804
g2
(g6
S'333333\xe3?'
p1805
tp1806
Rp1807
sS'/home/ishwarya/Documents/math_modeling/AMR-Data-Embedding/audio_samples/Harvard_Sentences/OSR_us_000_0013_8k.wav:speech_samples/pronunciation_en_nine.mp3:speech_samples/pronunciation_en_one.mp3'
p1808
g2
(g6
S'UUUUUU\xe5?'
p1809
tp1810
Rp1811
sS'/home/ishwarya/Documents/math_modeling/AMR-Data-Embedding/audio_samples/Harvard_Sentences/OSR_us_000_0019_8k.wav:speech_samples/pronunciation_en_five.mp3:speech_samples/pronunciation_en_one.mp3'
p1812
g2
(g6
S'k\xdf\xb0\xf6\rk\xdf?'
p1813
tp1814
Rp1815
sS'/home/ishwarya/Documents/math_modeling/AMR-Data-Embedding/audio_samples/Harvard_Sentences/OSR_us_000_0036_8k.wav:speech_samples/pronunciation_en_one.mp3:speech_samples/pronunciation_en_five.mp3'
p1816
g2
(g6
S'\x00\x00\x00\x00\x00\x00\xe0?'
p1817
tp1818
Rp1819
sS'/home/ishwarya/Documents/math_modeling/AMR-Data-Embedding/audio_samples/Harvard_Sentences/OSR_us_000_0012_8k.wav:speech_samples/pronunciation_en_one.mp3:speech_samples/pronunciation_en_five.mp3'
p1820
g2
(g6
S'h/\xa1\xbd\x84\xf6\xe2?'
p1821
tp1822
Rp1823
sS'/home/ishwarya/Documents/math_modeling/AMR-Data-Embedding/audio_samples/Harvard_Sentences/OSR_us_000_0061_8k.wav:speech_samples/pronunciation_en_one.mp3:speech_samples/pronunciation_en_seven.mp3'
p1824
g2
(g6
S'\x9a\x99\x99\x99\x99\x99\xe9?'
p1825
tp1826
Rp1827
sS'/home/ishwarya/Documents/math_modeling/AMR-Data-Embedding/audio_samples/Harvard_Sentences/OSR_us_000_0040_8k.wav:speech_samples/pronunciation_en_one.mp3:speech_samples/pronunciation_en_zero2.mp3'
p1828
g2
(g6
S'\xbd\xe9Moz\xd3\xdb?'
p1829
tp1830
Rp1831
sS'/home/ishwarya/Documents/math_modeling/AMR-Data-Embedding/audio_samples/Harvard_Sentences/OSR_us_000_0014_8k.wav:speech_samples/pronunciation_en_one.mp3:speech_samples/pronunciation_en_five.mp3'
p1832
g2
(g6
S'333333\xe3?'
p1833
tp1834
Rp1835
sS'/home/ishwarya/Documents/math_modeling/AMR-Data-Embedding/audio_samples/Harvard_Sentences/OSR_us_000_0010_8k.wav:speech_samples/pronunciation_en_zero2.mp3:speech_samples/pronunciation_en_nine.mp3'
p1836
g2
(g6
S'\xc1\xd3\xad\xf9a\x91\xe2?'
p1837
tp1838
Rp1839
sS'/home/ishwarya/Documents/math_modeling/AMR-Data-Embedding/audio_samples/Harvard_Sentences/OSR_us_000_0031_8k.wav:speech_samples/pronunciation_en_five.mp3:speech_samples/pronunciation_en_seven.mp3'
p1840
g2
(g6
S't\xd1E\x17]t\xd1?'
p1841
tp1842
Rp1843
sS'/home/ishwarya/Documents/math_modeling/AMR-Data-Embedding/audio_samples/Harvard_Sentences/OSR_us_000_0019_8k.wav:speech_samples/pronunciation_en_zero2.mp3:speech_samples/pronunciation_en_nine.mp3'
p1844
g2
(g6
S'\x92$I\x92$I\xe2?'
p1845
tp1846
Rp1847
sS'/home/ishwarya/Documents/math_modeling/AMR-Data-Embedding/audio_samples/Harvard_Sentences/OSR_us_000_0034_8k.wav:speech_samples/pronunciation_en_zero2.mp3:speech_samples/pronunciation_en_one.mp3'
p1848
g2
(g6
S'ffffff\xe6?'
p1849
tp1850
Rp1851
sS'/home/ishwarya/Documents/math_modeling/AMR-Data-Embedding/audio_samples/Harvard_Sentences/OSR_us_000_0010_8k.wav:speech_samples/pronunciation_en_one.mp3:speech_samples/pronunciation_en_nine.mp3'
p1852
g2
(g6
S'o0E>\xeb\x06\xe3?'
p1853
tp1854
Rp1855
sS'/home/ishwarya/Documents/math_modeling/AMR-Data-Embedding/audio_samples/Harvard_Sentences/OSR_us_000_0031_8k.wav:speech_samples/pronunciation_en_one.mp3:speech_samples/pronunciation_en_seven.mp3'
p1856
g2
(g6
S'\x9e\xd8\x89\x9d\xd8\x89\xdd?'
p1857
tp1858
Rp1859
sS'/home/ishwarya/Documents/math_modeling/AMR-Data-Embedding/audio_samples/Harvard_Sentences/OSR_us_000_0018_8k.wav:speech_samples/pronunciation_en_nine.mp3:speech_samples/pronunciation_en_zero2.mp3'
p1860
g2
(g6
S'I\x92$I\x92$\xd9?'
p1861
tp1862
Rp1863
sS'/home/ishwarya/Documents/math_modeling/AMR-Data-Embedding/audio_samples/Harvard_Sentences/OSR_us_000_0012_8k.wav:speech_samples/pronunciation_en_five.mp3:speech_samples/pronunciation_en_nine.mp3'
p1864
g2
(g6
S'\x00\x00\x00\x00\x00\x00\xd8?'
p1865
tp1866
Rp1867
sS'/home/ishwarya/Documents/math_modeling/AMR-Data-Embedding/audio_samples/Harvard_Sentences/OSR_us_000_0014_8k.wav:speech_samples/pronunciation_en_zero2.mp3:speech_samples/pronunciation_en_five.mp3'
p1868
g2
(g6
S'\xd6\x87\xc6\xfa\xd0X\xdf?'
p1869
tp1870
Rp1871
sS'/home/ishwarya/Documents/math_modeling/AMR-Data-Embedding/audio_samples/Harvard_Sentences/OSR_us_000_0030_8k.wav:speech_samples/pronunciation_en_one.mp3:speech_samples/pronunciation_en_seven.mp3'
p1872
g2
(g6
S'\xd2 \r\xd2 \r\xe2?'
p1873
tp1874
Rp1875
sS'/home/ishwarya/Documents/math_modeling/AMR-Data-Embedding/audio_samples/Harvard_Sentences/OSR_us_000_0019_8k.wav:speech_samples/pronunciation_en_seven.mp3:speech_samples/pronunciation_en_zero2.mp3'
p1876
g2
(g6
S'(\xaf\xa1\xbc\x86\xf2\xda?'
p1877
tp1878
Rp1879
sS'/home/ishwarya/Documents/math_modeling/AMR-Data-Embedding/audio_samples/Harvard_Sentences/OSR_us_000_0038_8k.wav:speech_samples/pronunciation_en_one.mp3:speech_samples/pronunciation_en_nine.mp3'
p1880
g2
(g6
S'\xdb\xb6m\xdb\xb6m\xdb?'
p1881
tp1882
Rp1883
sS'/home/ishwarya/Documents/math_modeling/AMR-Data-Embedding/audio_samples/Harvard_Sentences/OSR_us_000_0030_8k.wav:speech_samples/pronunciation_en_one.mp3:speech_samples/pronunciation_en_zero2.mp3'
p1884
g2
(g6
S'\xc3\x97\x1bb@:\xe6?'
p1885
tp1886
Rp1887
sS'/home/ishwarya/Documents/math_modeling/AMR-Data-Embedding/audio_samples/Harvard_Sentences/OSR_us_000_0060_8k.wav:speech_samples/pronunciation_en_seven.mp3:speech_samples/pronunciation_en_zero2.mp3'
p1888
g2
(g6
S'(\xaf\xa1\xbc\x86\xf2\xda?'
p1889
tp1890
Rp1891
sS'/home/ishwarya/Documents/math_modeling/AMR-Data-Embedding/audio_samples/Harvard_Sentences/OSR_us_000_0010_8k.wav:speech_samples/pronunciation_en_nine.mp3:speech_samples/pronunciation_en_five.mp3'
p1892
g2
(g6
S'F\x17]t\xd1E\xc7?'
p1893
tp1894
Rp1895
sS'/home/ishwarya/Documents/math_modeling/AMR-Data-Embedding/audio_samples/Harvard_Sentences/OSR_us_000_0015_8k.wav:speech_samples/pronunciation_en_nine.mp3:speech_samples/pronunciation_en_five.mp3'
p1896
g2
(g6
S'8\x1f\x83\xf318\xdf?'
p1897
tp1898
Rp1899
sS'/home/ishwarya/Documents/math_modeling/AMR-Data-Embedding/audio_samples/Harvard_Sentences/OSR_us_000_0036_8k.wav:speech_samples/pronunciation_en_five.mp3:speech_samples/pronunciation_en_seven.mp3'
p1900
g2
(g6
S'\xdb\xb6m\xdb\xb6m\xdb?'
p1901
tp1902
Rp1903
sS'/home/ishwarya/Documents/math_modeling/AMR-Data-Embedding/audio_samples/Harvard_Sentences/OSR_us_000_0035_8k.wav:speech_samples/pronunciation_en_one.mp3:speech_samples/pronunciation_en_five.mp3'
p1904
g2
(g6
S'\x00\x00\x00\x00\x00\x00\xe4?'
p1905
tp1906
Rp1907
sS'/home/ishwarya/Documents/math_modeling/AMR-Data-Embedding/audio_samples/Harvard_Sentences/OSR_us_000_0038_8k.wav:speech_samples/pronunciation_en_one.mp3:speech_samples/pronunciation_en_seven.mp3'
p1908
g2
(g6
S'r\x1c\xc7q\x1c\xc7\xe1?'
p1909
tp1910
Rp1911
sS'/home/ishwarya/Documents/math_modeling/AMR-Data-Embedding/audio_samples/Harvard_Sentences/OSR_us_000_0032_8k.wav:speech_samples/pronunciation_en_five.mp3:speech_samples/pronunciation_en_nine.mp3'
p1912
g2
(g6
S'\x9e\xd8\x89\x9d\xd8\x89\xdd?'
p1913
tp1914
Rp1915
sS'/home/ishwarya/Documents/math_modeling/AMR-Data-Embedding/audio_samples/Harvard_Sentences/OSR_us_000_0015_8k.wav:speech_samples/pronunciation_en_zero2.mp3:speech_samples/pronunciation_en_one.mp3'
p1916
g2
(g6
S'\x1dH\xb4\xc2\xe6@\xe2?'
p1917
tp1918
Rp1919
sS'/home/ishwarya/Documents/math_modeling/AMR-Data-Embedding/audio_samples/Harvard_Sentences/OSR_us_000_0013_8k.wav:speech_samples/pronunciation_en_five.mp3:speech_samples/pronunciation_en_zero2.mp3'
p1920
g2
(g6
S'n\xdb\xb6m\xdb\xb6\xdd?'
p1921
tp1922
Rp1923
sS'/home/ishwarya/Documents/math_modeling/AMR-Data-Embedding/audio_samples/Harvard_Sentences/OSR_us_000_0014_8k.wav:speech_samples/pronunciation_en_zero2.mp3:speech_samples/pronunciation_en_one.mp3'
p1924
g2
(g6
S'\xe9\xa2\x8b.\xba\xe8\xe2?'
p1925
tp1926
Rp1927
s.